	.section	__TEXT,__text,regular,pure_instructions
	.build_version macos, 10, 14	sdk_version 10, 14
	.globl	_stbi_failure_reason    ## -- Begin function stbi_failure_reason
	.p2align	4, 0x90
_stbi_failure_reason:                   ## @stbi_failure_reason
	.cfi_startproc
## %bb.0:
	pushq	%rbp
	.cfi_def_cfa_offset 16
	.cfi_offset %rbp, -16
	movq	%rsp, %rbp
	.cfi_def_cfa_register %rbp
	movq	_stbi__g_failure_reason@TLVP(%rip), %rdi
	callq	*(%rdi)
	movq	(%rax), %rax
	popq	%rbp
	retq
	.cfi_endproc
                                        ## -- End function
	.globl	_stbi_image_free        ## -- Begin function stbi_image_free
	.p2align	4, 0x90
_stbi_image_free:                       ## @stbi_image_free
	.cfi_startproc
## %bb.0:
	pushq	%rbp
	.cfi_def_cfa_offset 16
	.cfi_offset %rbp, -16
	movq	%rsp, %rbp
	.cfi_def_cfa_register %rbp
	popq	%rbp
	jmp	_free                   ## TAILCALL
	.cfi_endproc
                                        ## -- End function
	.globl	_stbi_set_flip_vertically_on_load ## -- Begin function stbi_set_flip_vertically_on_load
	.p2align	4, 0x90
_stbi_set_flip_vertically_on_load:      ## @stbi_set_flip_vertically_on_load
	.cfi_startproc
## %bb.0:
	pushq	%rbp
	.cfi_def_cfa_offset 16
	.cfi_offset %rbp, -16
	movq	%rsp, %rbp
	.cfi_def_cfa_register %rbp
	movl	%edi, _stbi__vertically_flip_on_load_global(%rip)
	popq	%rbp
	retq
	.cfi_endproc
                                        ## -- End function
	.globl	_stbi_set_flip_vertically_on_load_thread ## -- Begin function stbi_set_flip_vertically_on_load_thread
	.p2align	4, 0x90
_stbi_set_flip_vertically_on_load_thread: ## @stbi_set_flip_vertically_on_load_thread
	.cfi_startproc
## %bb.0:
	pushq	%rbp
	.cfi_def_cfa_offset 16
	.cfi_offset %rbp, -16
	movq	%rsp, %rbp
	.cfi_def_cfa_register %rbp
	movl	%edi, %ecx
	movq	_stbi__vertically_flip_on_load_local@TLVP(%rip), %rdi
	callq	*(%rdi)
	movl	%ecx, (%rax)
	movq	_stbi__vertically_flip_on_load_set@TLVP(%rip), %rdi
	callq	*(%rdi)
	movb	$1, (%rax)
	popq	%rbp
	retq
	.cfi_endproc
                                        ## -- End function
	.globl	_stbi_load              ## -- Begin function stbi_load
	.p2align	4, 0x90
_stbi_load:                             ## @stbi_load
	.cfi_startproc
## %bb.0:
	pushq	%rbp
	.cfi_def_cfa_offset 16
	.cfi_offset %rbp, -16
	movq	%rsp, %rbp
	.cfi_def_cfa_register %rbp
	pushq	%r15
	pushq	%r14
	pushq	%r13
	pushq	%r12
	pushq	%rbx
	pushq	%rax
	.cfi_offset %rbx, -56
	.cfi_offset %r12, -48
	.cfi_offset %r13, -40
	.cfi_offset %r14, -32
	.cfi_offset %r15, -24
	movl	%r8d, %r14d
	movq	%rcx, %r15
	movq	%rdx, %r12
	movq	%rsi, %r13
	leaq	L_.str(%rip), %rsi
	callq	_fopen
	testq	%rax, %rax
	je	LBB4_1
## %bb.3:
	movq	%rax, %rbx
	movq	%rax, %rdi
	movq	%r13, %rsi
	movq	%r12, %rdx
	movq	%r15, %rcx
	movl	%r14d, %r8d
	callq	_stbi_load_from_file
	movq	%rax, %r14
	movq	%rbx, %rdi
	callq	_fclose
	movq	%r14, %rax
	jmp	LBB4_2
LBB4_1:
	leaq	L_.str.1(%rip), %rcx
	movq	_stbi__g_failure_reason@TLVP(%rip), %rdi
	callq	*(%rdi)
	movq	%rcx, (%rax)
	xorl	%eax, %eax
LBB4_2:
	addq	$8, %rsp
	popq	%rbx
	popq	%r12
	popq	%r13
	popq	%r14
	popq	%r15
	popq	%rbp
	retq
	.cfi_endproc
                                        ## -- End function
	.globl	_stbi_load_from_file    ## -- Begin function stbi_load_from_file
	.p2align	4, 0x90
_stbi_load_from_file:                   ## @stbi_load_from_file
	.cfi_startproc
## %bb.0:
	pushq	%rbp
	.cfi_def_cfa_offset 16
	.cfi_offset %rbp, -16
	movq	%rsp, %rbp
	.cfi_def_cfa_register %rbp
	pushq	%r15
	pushq	%r14
	pushq	%r13
	pushq	%r12
	pushq	%rbx
	subq	$248, %rsp
	.cfi_offset %rbx, -56
	.cfi_offset %r12, -48
	.cfi_offset %r13, -40
	.cfi_offset %r14, -32
	.cfi_offset %r15, -24
	movl	%r8d, -276(%rbp)        ## 4-byte Spill
	movq	%rcx, %r15
	movq	%rdx, %r12
	movq	%rsi, %r13
	movq	%rdi, %r14
	movq	___stack_chk_guard@GOTPCREL(%rip), %rax
	movq	(%rax), %rax
	movq	%rax, -48(%rbp)
	movq	_stbi__stdio_callbacks+16(%rip), %rax
	movq	%rax, -240(%rbp)
	movq	_stbi__stdio_callbacks+8(%rip), %rax
	movq	%rax, -248(%rbp)
	movq	_stbi__stdio_callbacks(%rip), %rax
	movq	%rax, -256(%rbp)
	movq	%rdi, -232(%rbp)
	movabsq	$549755813889, %rcx     ## imm = 0x8000000001
	movq	%rcx, -224(%rbp)
	movl	$0, -88(%rbp)
	leaq	-216(%rbp), %rbx
	movq	%rbx, -64(%rbp)
	movq	%rbx, -80(%rbp)
	movq	%rbx, %rsi
	movl	$128, %edx
	callq	*%rax
	movl	-80(%rbp), %ecx
	subl	-64(%rbp), %ecx
	addl	%ecx, -88(%rbp)
	testl	%eax, %eax
	je	LBB5_1
## %bb.2:
	movq	%rbx, -80(%rbp)
	cltq
	leaq	-216(%rbp,%rax), %rax
	jmp	LBB5_3
LBB5_1:
	movl	$0, -224(%rbp)
	movq	%rbx, -80(%rbp)
	leaq	-215(%rbp), %rax
	movb	$0, -216(%rbp)
LBB5_3:
	movq	%rax, -72(%rbp)
	movq	%rax, -56(%rbp)
	leaq	-272(%rbp), %rdi
	movq	%r13, %rsi
	movq	%r12, %rdx
	movq	%r15, %rcx
	movl	-276(%rbp), %r8d        ## 4-byte Reload
	callq	_stbi__load_and_postprocess_8bit
	movq	%rax, %rbx
	testq	%rax, %rax
	je	LBB5_5
## %bb.4:
	movl	-72(%rbp), %esi
	subl	-80(%rbp), %esi
	shlq	$32, %rsi
	negq	%rsi
	sarq	$32, %rsi
	movq	%r14, %rdi
	movl	$1, %edx
	callq	_fseek
LBB5_5:
	movq	___stack_chk_guard@GOTPCREL(%rip), %rax
	movq	(%rax), %rax
	cmpq	-48(%rbp), %rax
	jne	LBB5_7
## %bb.6:
	movq	%rbx, %rax
	addq	$248, %rsp
	popq	%rbx
	popq	%r12
	popq	%r13
	popq	%r14
	popq	%r15
	popq	%rbp
	retq
LBB5_7:
	callq	___stack_chk_fail
	.cfi_endproc
                                        ## -- End function
	.p2align	4, 0x90         ## -- Begin function stbi__load_and_postprocess_8bit
_stbi__load_and_postprocess_8bit:       ## @stbi__load_and_postprocess_8bit
	.cfi_startproc
## %bb.0:
	pushq	%rbp
	.cfi_def_cfa_offset 16
	.cfi_offset %rbp, -16
	movq	%rsp, %rbp
	.cfi_def_cfa_register %rbp
	pushq	%r15
	pushq	%r14
	pushq	%r13
	pushq	%r12
	pushq	%rbx
	subq	$2120, %rsp             ## imm = 0x848
	.cfi_offset %rbx, -56
	.cfi_offset %r12, -48
	.cfi_offset %r13, -40
	.cfi_offset %r14, -32
	.cfi_offset %r15, -24
	movl	%r8d, %r14d
	movq	%rcx, %rbx
	movq	%rdx, %r12
	movq	%rsi, %r15
	movq	___stack_chk_guard@GOTPCREL(%rip), %rax
	movq	(%rax), %rax
	movq	%rax, -48(%rbp)
	leaq	-2152(%rbp), %r9
	callq	_stbi__load_main
	testq	%rax, %rax
	je	LBB6_1
## %bb.2:
	movq	%rax, %r13
	movl	-2152(%rbp), %eax
	cmpl	$8, %eax
	je	LBB6_3
## %bb.4:
	movq	%rbx, -2104(%rbp)       ## 8-byte Spill
	cmpl	$16, %eax
	jne	LBB6_43
## %bb.5:
	movl	(%r15), %eax
	movl	(%r12), %ebx
	movl	%r14d, %ecx
	testl	%r14d, %r14d
	jne	LBB6_7
## %bb.6:
	movq	-2104(%rbp), %rcx       ## 8-byte Reload
	movl	(%rcx), %ecx
LBB6_7:
	imull	%eax, %ebx
	imull	%ecx, %ebx
	movslq	%ebx, %rdi
	callq	_malloc
	movq	%rax, %r8
	testq	%rax, %rax
	je	LBB6_27
## %bb.8:
	testl	%ebx, %ebx
	jle	LBB6_26
## %bb.9:
	movl	%ebx, %eax
	cmpl	$15, %ebx
	jbe	LBB6_10
## %bb.17:
	leaq	(%r13,%rax,2), %rcx
	cmpq	%rcx, %r8
	jae	LBB6_19
## %bb.18:
	leaq	(%r8,%rax), %rcx
	cmpq	%rcx, %r13
	jae	LBB6_19
LBB6_10:
	xorl	%ecx, %ecx
LBB6_11:
	movq	%rcx, %rdx
	notq	%rdx
	addq	%rax, %rdx
	movq	%rax, %rsi
	andq	$3, %rsi
	je	LBB6_14
## %bb.12:
	negq	%rsi
	.p2align	4, 0x90
LBB6_13:                                ## =>This Inner Loop Header: Depth=1
	movzbl	1(%r13,%rcx,2), %ebx
	movb	%bl, (%r8,%rcx)
	incq	%rcx
	incq	%rsi
	jne	LBB6_13
LBB6_14:
	cmpq	$3, %rdx
	jb	LBB6_26
## %bb.15:
	subq	%rcx, %rax
	leaq	3(%r8,%rcx), %rdx
	leaq	6(%r13,%rcx,2), %rcx
	xorl	%esi, %esi
	.p2align	4, 0x90
LBB6_16:                                ## =>This Inner Loop Header: Depth=1
	movzbl	-5(%rcx,%rsi,2), %ebx
	movb	%bl, -3(%rdx,%rsi)
	movzbl	-3(%rcx,%rsi,2), %ebx
	movb	%bl, -2(%rdx,%rsi)
	movzbl	-1(%rcx,%rsi,2), %ebx
	movb	%bl, -1(%rdx,%rsi)
	movzbl	1(%rcx,%rsi,2), %ebx
	movb	%bl, (%rdx,%rsi)
	addq	$4, %rsi
	cmpq	%rsi, %rax
	jne	LBB6_16
	jmp	LBB6_26
LBB6_1:
	xorl	%r8d, %r8d
	jmp	LBB6_41
LBB6_3:
	movq	%r13, %r8
	jmp	LBB6_29
LBB6_27:
	leaq	L_.str.67(%rip), %rcx
	movq	_stbi__g_failure_reason@TLVP(%rip), %rdi
	callq	*(%rdi)
	movq	%rcx, (%rax)
	jmp	LBB6_28
LBB6_19:
	movl	%eax, %ecx
	andl	$-16, %ecx
	leaq	-16(%rcx), %rdi
	movq	%rdi, %rdx
	shrq	$4, %rdx
	incq	%rdx
	movl	%edx, %esi
	andl	$1, %esi
	testq	%rdi, %rdi
	je	LBB6_20
## %bb.21:
	movl	$1, %edi
	subq	%rdx, %rdi
	leaq	-1(%rsi,%rdi), %rdi
	xorl	%edx, %edx
	.p2align	4, 0x90
LBB6_22:                                ## =>This Inner Loop Header: Depth=1
	movdqu	(%r13,%rdx,2), %xmm0
	movdqu	16(%r13,%rdx,2), %xmm1
	psrlw	$8, %xmm0
	packuswb	%xmm0, %xmm0
	psrlw	$8, %xmm1
	packuswb	%xmm0, %xmm1
	movq	%xmm0, (%r8,%rdx)
	movq	%xmm1, 8(%r8,%rdx)
	movdqu	32(%r13,%rdx,2), %xmm0
	movdqu	48(%r13,%rdx,2), %xmm1
	psrlw	$8, %xmm0
	packuswb	%xmm0, %xmm0
	psrlw	$8, %xmm1
	packuswb	%xmm0, %xmm1
	movq	%xmm0, 16(%r8,%rdx)
	movq	%xmm1, 24(%r8,%rdx)
	addq	$32, %rdx
	addq	$2, %rdi
	jne	LBB6_22
	jmp	LBB6_23
LBB6_20:
	xorl	%edx, %edx
LBB6_23:
	testq	%rsi, %rsi
	je	LBB6_25
## %bb.24:
	movdqu	(%r13,%rdx,2), %xmm0
	movdqu	16(%r13,%rdx,2), %xmm1
	psrlw	$8, %xmm0
	psrlw	$8, %xmm1
	packuswb	%xmm0, %xmm0
	movq	%xmm0, (%r8,%rdx)
	packuswb	%xmm0, %xmm1
	movq	%xmm1, 8(%r8,%rdx)
LBB6_25:
	cmpq	%rax, %rcx
	jne	LBB6_11
LBB6_26:
	movq	%r13, %rdi
	movq	%r8, %rbx
	callq	_free
	movq	%rbx, %r8
LBB6_28:
	movl	$8, -2152(%rbp)
	movq	-2104(%rbp), %rbx       ## 8-byte Reload
LBB6_29:
	movq	_stbi__vertically_flip_on_load_set@TLVP(%rip), %rdi
	callq	*(%rdi)
	cmpb	$1, (%rax)
	jne	LBB6_31
## %bb.30:
	movq	_stbi__vertically_flip_on_load_local@TLVP(%rip), %rdi
	callq	*(%rdi)
	cmpl	$0, (%rax)
	jne	LBB6_32
	jmp	LBB6_41
LBB6_31:
	cmpl	$0, _stbi__vertically_flip_on_load_global(%rip)
	je	LBB6_41
LBB6_32:
	movq	%r8, -2120(%rbp)        ## 8-byte Spill
	testl	%r14d, %r14d
	jne	LBB6_34
## %bb.33:
	movl	(%rbx), %r14d
LBB6_34:
	movl	(%r12), %eax
	movq	%rax, -2112(%rbp)       ## 8-byte Spill
	cmpl	$2, %eax
	jl	LBB6_40
## %bb.35:
	movslq	(%r15), %rax
	movslq	%r14d, %rcx
	imulq	%rax, %rcx
	movq	%rcx, -2128(%rbp)       ## 8-byte Spill
	movq	-2112(%rbp), %rax       ## 8-byte Reload
	shrq	%rax
	movq	%rax, -2136(%rbp)       ## 8-byte Spill
	xorl	%eax, %eax
	movq	%rax, -2104(%rbp)       ## 8-byte Spill
	leaq	-2096(%rbp), %r14
	.p2align	4, 0x90
LBB6_36:                                ## =>This Loop Header: Depth=1
                                        ##     Child Loop BB6_38 Depth 2
	cmpq	$0, -2128(%rbp)         ## 8-byte Folded Reload
	je	LBB6_39
## %bb.37:                              ##   in Loop: Header=BB6_36 Depth=1
	movq	-2104(%rbp), %r12       ## 8-byte Reload
	movl	%r12d, %eax
	notl	%eax
	addl	-2112(%rbp), %eax       ## 4-byte Folded Reload
	movslq	%eax, %r15
	movq	-2128(%rbp), %r13       ## 8-byte Reload
	imulq	%r13, %r15
	movq	-2120(%rbp), %rax       ## 8-byte Reload
	addq	%rax, %r15
	imulq	%r13, %r12
	addq	%rax, %r12
	.p2align	4, 0x90
LBB6_38:                                ##   Parent Loop BB6_36 Depth=1
                                        ## =>  This Inner Loop Header: Depth=2
	cmpq	$2048, %r13             ## imm = 0x800
	movl	$2048, %ebx             ## imm = 0x800
	cmovbq	%r13, %rbx
	movl	$2048, %ecx             ## imm = 0x800
	movq	%r14, %rdi
	movq	%r12, %rsi
	movq	%rbx, %rdx
	callq	___memcpy_chk
	movq	%r12, %rdi
	movq	%r15, %rsi
	movq	%rbx, %rdx
	callq	_memcpy
	movq	%r15, %rdi
	movq	%r14, %rsi
	movq	%rbx, %rdx
	callq	_memcpy
	addq	%rbx, %r12
	addq	%rbx, %r15
	subq	%rbx, %r13
	jne	LBB6_38
LBB6_39:                                ##   in Loop: Header=BB6_36 Depth=1
	movq	-2104(%rbp), %rax       ## 8-byte Reload
	movq	%rax, %rcx
	incq	%rcx
	movq	%rcx, %rax
	movq	%rcx, -2104(%rbp)       ## 8-byte Spill
	cmpq	-2136(%rbp), %rcx       ## 8-byte Folded Reload
	jb	LBB6_36
LBB6_40:
	movq	-2120(%rbp), %r8        ## 8-byte Reload
LBB6_41:
	movq	___stack_chk_guard@GOTPCREL(%rip), %rax
	movq	(%rax), %rax
	cmpq	-48(%rbp), %rax
	jne	LBB6_44
## %bb.42:
	movq	%r8, %rax
	addq	$2120, %rsp             ## imm = 0x848
	popq	%rbx
	popq	%r12
	popq	%r13
	popq	%r14
	popq	%r15
	popq	%rbp
	retq
LBB6_44:
	callq	___stack_chk_fail
LBB6_43:
	leaq	L___func__.stbi__load_and_postprocess_8bit(%rip), %rdi
	leaq	L_.str.45(%rip), %rsi
	leaq	L_.str.46(%rip), %rcx
	movl	$1249, %edx             ## imm = 0x4E1
	callq	___assert_rtn
	.cfi_endproc
                                        ## -- End function
	.globl	_stbi_load_from_file_16 ## -- Begin function stbi_load_from_file_16
	.p2align	4, 0x90
_stbi_load_from_file_16:                ## @stbi_load_from_file_16
	.cfi_startproc
## %bb.0:
	pushq	%rbp
	.cfi_def_cfa_offset 16
	.cfi_offset %rbp, -16
	movq	%rsp, %rbp
	.cfi_def_cfa_register %rbp
	pushq	%r15
	pushq	%r14
	pushq	%r13
	pushq	%r12
	pushq	%rbx
	subq	$248, %rsp
	.cfi_offset %rbx, -56
	.cfi_offset %r12, -48
	.cfi_offset %r13, -40
	.cfi_offset %r14, -32
	.cfi_offset %r15, -24
	movl	%r8d, -276(%rbp)        ## 4-byte Spill
	movq	%rcx, %r15
	movq	%rdx, %r12
	movq	%rsi, %r13
	movq	%rdi, %r14
	movq	___stack_chk_guard@GOTPCREL(%rip), %rax
	movq	(%rax), %rax
	movq	%rax, -48(%rbp)
	movq	_stbi__stdio_callbacks+16(%rip), %rax
	movq	%rax, -240(%rbp)
	movq	_stbi__stdio_callbacks+8(%rip), %rax
	movq	%rax, -248(%rbp)
	movq	_stbi__stdio_callbacks(%rip), %rax
	movq	%rax, -256(%rbp)
	movq	%rdi, -232(%rbp)
	movabsq	$549755813889, %rcx     ## imm = 0x8000000001
	movq	%rcx, -224(%rbp)
	movl	$0, -88(%rbp)
	leaq	-216(%rbp), %rbx
	movq	%rbx, -64(%rbp)
	movq	%rbx, -80(%rbp)
	movq	%rbx, %rsi
	movl	$128, %edx
	callq	*%rax
	movl	-80(%rbp), %ecx
	subl	-64(%rbp), %ecx
	addl	%ecx, -88(%rbp)
	testl	%eax, %eax
	je	LBB7_1
## %bb.2:
	movq	%rbx, -80(%rbp)
	cltq
	leaq	-216(%rbp,%rax), %rax
	jmp	LBB7_3
LBB7_1:
	movl	$0, -224(%rbp)
	movq	%rbx, -80(%rbp)
	leaq	-215(%rbp), %rax
	movb	$0, -216(%rbp)
LBB7_3:
	movq	%rax, -72(%rbp)
	movq	%rax, -56(%rbp)
	leaq	-272(%rbp), %rdi
	movq	%r13, %rsi
	movq	%r12, %rdx
	movq	%r15, %rcx
	movl	-276(%rbp), %r8d        ## 4-byte Reload
	callq	_stbi__load_and_postprocess_16bit
	movq	%rax, %rbx
	testq	%rax, %rax
	je	LBB7_5
## %bb.4:
	movl	-72(%rbp), %esi
	subl	-80(%rbp), %esi
	shlq	$32, %rsi
	negq	%rsi
	sarq	$32, %rsi
	movq	%r14, %rdi
	movl	$1, %edx
	callq	_fseek
LBB7_5:
	movq	___stack_chk_guard@GOTPCREL(%rip), %rax
	movq	(%rax), %rax
	cmpq	-48(%rbp), %rax
	jne	LBB7_7
## %bb.6:
	movq	%rbx, %rax
	addq	$248, %rsp
	popq	%rbx
	popq	%r12
	popq	%r13
	popq	%r14
	popq	%r15
	popq	%rbp
	retq
LBB7_7:
	callq	___stack_chk_fail
	.cfi_endproc
                                        ## -- End function
	.section	__TEXT,__literal16,16byte_literals
	.p2align	4               ## -- Begin function stbi__load_and_postprocess_16bit
LCPI8_0:
	.space	16,1
	.section	__TEXT,__text,regular,pure_instructions
	.p2align	4, 0x90
_stbi__load_and_postprocess_16bit:      ## @stbi__load_and_postprocess_16bit
	.cfi_startproc
## %bb.0:
	pushq	%rbp
	.cfi_def_cfa_offset 16
	.cfi_offset %rbp, -16
	movq	%rsp, %rbp
	.cfi_def_cfa_register %rbp
	pushq	%r15
	pushq	%r14
	pushq	%r13
	pushq	%r12
	pushq	%rbx
	subq	$2120, %rsp             ## imm = 0x848
	.cfi_offset %rbx, -56
	.cfi_offset %r12, -48
	.cfi_offset %r13, -40
	.cfi_offset %r14, -32
	.cfi_offset %r15, -24
	movl	%r8d, %r14d
	movq	%rcx, %r15
	movq	%rdx, %r12
	movq	%rsi, %rbx
	movq	___stack_chk_guard@GOTPCREL(%rip), %rax
	movq	(%rax), %rax
	movq	%rax, -48(%rbp)
	leaq	-2152(%rbp), %r9
	callq	_stbi__load_main
	testq	%rax, %rax
	je	LBB8_1
## %bb.2:
	movq	%rax, %r13
	movl	-2152(%rbp), %eax
	cmpl	$8, %eax
	je	LBB8_5
## %bb.3:
	cmpl	$16, %eax
	je	LBB8_29
## %bb.4:
	leaq	L___func__.stbi__load_and_postprocess_16bit(%rip), %rdi
	leaq	L_.str.45(%rip), %rsi
	leaq	L_.str.46(%rip), %rcx
	movl	$1275, %edx             ## imm = 0x4FB
	callq	___assert_rtn
LBB8_1:
	xorl	%r13d, %r13d
	jmp	LBB8_41
LBB8_5:
	movq	%r12, %rcx
	movq	%r13, -2112(%rbp)       ## 8-byte Spill
	movq	%rbx, -2104(%rbp)       ## 8-byte Spill
	movl	(%rbx), %eax
	movl	(%r12), %ebx
	movl	%r14d, %ecx
	testl	%r14d, %r14d
	jne	LBB8_7
## %bb.6:
	movl	(%r15), %ecx
LBB8_7:
	imull	%eax, %ebx
	imull	%ecx, %ebx
	leal	(%rbx,%rbx), %eax
	movslq	%eax, %rdi
	callq	_malloc
	movq	%rax, %r13
	testq	%rax, %rax
	je	LBB8_27
## %bb.8:
	testl	%ebx, %ebx
	movq	-2112(%rbp), %rdi       ## 8-byte Reload
	jle	LBB8_26
## %bb.9:
	movl	%ebx, %r9d
	cmpl	$15, %ebx
	jbe	LBB8_10
## %bb.17:
	leaq	(%rdi,%r9), %rcx
	cmpq	%rcx, %r13
	jae	LBB8_19
## %bb.18:
	leaq	(%r13,%r9,2), %rcx
	cmpq	%rcx, %rdi
	jae	LBB8_19
LBB8_10:
	xorl	%ecx, %ecx
LBB8_11:
	movq	%rcx, %r8
	notq	%r8
	addq	%r9, %r8
	movq	%r9, %rsi
	andq	$3, %rsi
	je	LBB8_14
## %bb.12:
	negq	%rsi
	.p2align	4, 0x90
LBB8_13:                                ## =>This Inner Loop Header: Depth=1
	movzbl	(%rdi,%rcx), %edx
	movl	%edx, %ebx
	shll	$8, %ebx
	orl	%edx, %ebx
	movw	%bx, (%r13,%rcx,2)
	incq	%rcx
	incq	%rsi
	jne	LBB8_13
LBB8_14:
	cmpq	$3, %r8
	jb	LBB8_26
## %bb.15:
	subq	%rcx, %r9
	leaq	6(%r13,%rcx,2), %rdx
	leaq	3(%rdi,%rcx), %rcx
	xorl	%esi, %esi
	.p2align	4, 0x90
LBB8_16:                                ## =>This Inner Loop Header: Depth=1
	movzbl	-3(%rcx,%rsi), %eax
	movl	%eax, %ebx
	shll	$8, %ebx
	orl	%eax, %ebx
	movw	%bx, -6(%rdx,%rsi,2)
	movzbl	-2(%rcx,%rsi), %ebx
	movl	%ebx, %eax
	shll	$8, %eax
	orl	%ebx, %eax
	movw	%ax, -4(%rdx,%rsi,2)
	movzbl	-1(%rcx,%rsi), %ebx
	movl	%ebx, %eax
	shll	$8, %eax
	orl	%ebx, %eax
	movw	%ax, -2(%rdx,%rsi,2)
	movzbl	(%rcx,%rsi), %ebx
	movl	%ebx, %eax
	shll	$8, %eax
	orl	%ebx, %eax
	movw	%ax, (%rdx,%rsi,2)
	addq	$4, %rsi
	cmpq	%rsi, %r9
	jne	LBB8_16
	jmp	LBB8_26
LBB8_27:
	leaq	L_.str.67(%rip), %rcx
	movq	_stbi__g_failure_reason@TLVP(%rip), %rdi
	callq	*(%rdi)
	movq	%rcx, (%rax)
	jmp	LBB8_28
LBB8_19:
	movl	%r9d, %ecx
	andl	$-16, %ecx
	leaq	-16(%rcx), %rbx
	movq	%rbx, %rdx
	shrq	$4, %rdx
	incq	%rdx
	movl	%edx, %esi
	andl	$1, %esi
	testq	%rbx, %rbx
	je	LBB8_20
## %bb.21:
	movl	$1, %eax
	subq	%rdx, %rax
	leaq	-1(%rsi,%rax), %rax
	xorl	%edx, %edx
	movdqa	LCPI8_0(%rip), %xmm0    ## xmm0 = [257,257,257,257,257,257,257,257]
	.p2align	4, 0x90
LBB8_22:                                ## =>This Inner Loop Header: Depth=1
	pmovzxbw	(%rdi,%rdx), %xmm1 ## xmm1 = mem[0],zero,mem[1],zero,mem[2],zero,mem[3],zero,mem[4],zero,mem[5],zero,mem[6],zero,mem[7],zero
	pmovzxbw	8(%rdi,%rdx), %xmm2 ## xmm2 = mem[0],zero,mem[1],zero,mem[2],zero,mem[3],zero,mem[4],zero,mem[5],zero,mem[6],zero,mem[7],zero
	pmullw	%xmm0, %xmm1
	pmullw	%xmm0, %xmm2
	movdqu	%xmm1, (%r13,%rdx,2)
	movdqu	%xmm2, 16(%r13,%rdx,2)
	pmovzxbw	16(%rdi,%rdx), %xmm1 ## xmm1 = mem[0],zero,mem[1],zero,mem[2],zero,mem[3],zero,mem[4],zero,mem[5],zero,mem[6],zero,mem[7],zero
	pmovzxbw	24(%rdi,%rdx), %xmm2 ## xmm2 = mem[0],zero,mem[1],zero,mem[2],zero,mem[3],zero,mem[4],zero,mem[5],zero,mem[6],zero,mem[7],zero
	pmullw	%xmm0, %xmm1
	pmullw	%xmm0, %xmm2
	movdqu	%xmm1, 32(%r13,%rdx,2)
	movdqu	%xmm2, 48(%r13,%rdx,2)
	addq	$32, %rdx
	addq	$2, %rax
	jne	LBB8_22
	jmp	LBB8_23
LBB8_20:
	xorl	%edx, %edx
LBB8_23:
	testq	%rsi, %rsi
	je	LBB8_25
## %bb.24:
	pmovzxbw	(%rdi,%rdx), %xmm0 ## xmm0 = mem[0],zero,mem[1],zero,mem[2],zero,mem[3],zero,mem[4],zero,mem[5],zero,mem[6],zero,mem[7],zero
	pmovzxbw	8(%rdi,%rdx), %xmm1 ## xmm1 = mem[0],zero,mem[1],zero,mem[2],zero,mem[3],zero,mem[4],zero,mem[5],zero,mem[6],zero,mem[7],zero
	movdqa	LCPI8_0(%rip), %xmm2    ## xmm2 = [257,257,257,257,257,257,257,257]
	pmullw	%xmm2, %xmm0
	pmullw	%xmm2, %xmm1
	movdqu	%xmm0, (%r13,%rdx,2)
	movdqu	%xmm1, 16(%r13,%rdx,2)
LBB8_25:
	cmpq	%r9, %rcx
	jne	LBB8_11
LBB8_26:
	callq	_free
LBB8_28:
	movl	$16, -2152(%rbp)
	movq	-2104(%rbp), %rbx       ## 8-byte Reload
LBB8_29:
	movq	_stbi__vertically_flip_on_load_set@TLVP(%rip), %rdi
	callq	*(%rdi)
	cmpb	$1, (%rax)
	jne	LBB8_31
## %bb.30:
	movq	_stbi__vertically_flip_on_load_local@TLVP(%rip), %rdi
	callq	*(%rdi)
	cmpl	$0, (%rax)
	jne	LBB8_32
	jmp	LBB8_41
LBB8_31:
	cmpl	$0, _stbi__vertically_flip_on_load_global(%rip)
	je	LBB8_41
LBB8_32:
	movq	%r13, -2112(%rbp)       ## 8-byte Spill
	testl	%r14d, %r14d
	jne	LBB8_34
## %bb.33:
	movl	(%r15), %r14d
LBB8_34:
	movl	(%r12), %eax
	movq	%rax, -2120(%rbp)       ## 8-byte Spill
	cmpl	$2, %eax
	jl	LBB8_40
## %bb.35:
	movslq	(%rbx), %rax
	addl	%r14d, %r14d
	movslq	%r14d, %rcx
	imulq	%rax, %rcx
	movq	%rcx, -2128(%rbp)       ## 8-byte Spill
	movq	-2120(%rbp), %rax       ## 8-byte Reload
	shrq	%rax
	movq	%rax, -2136(%rbp)       ## 8-byte Spill
	xorl	%eax, %eax
	movq	%rax, -2104(%rbp)       ## 8-byte Spill
	leaq	-2096(%rbp), %r14
	.p2align	4, 0x90
LBB8_36:                                ## =>This Loop Header: Depth=1
                                        ##     Child Loop BB8_38 Depth 2
	cmpq	$0, -2128(%rbp)         ## 8-byte Folded Reload
	je	LBB8_39
## %bb.37:                              ##   in Loop: Header=BB8_36 Depth=1
	movq	-2104(%rbp), %r12       ## 8-byte Reload
	movl	%r12d, %eax
	notl	%eax
	addl	-2120(%rbp), %eax       ## 4-byte Folded Reload
	movslq	%eax, %r15
	movq	-2128(%rbp), %r13       ## 8-byte Reload
	imulq	%r13, %r15
	movq	-2112(%rbp), %rax       ## 8-byte Reload
	addq	%rax, %r15
	imulq	%r13, %r12
	addq	%rax, %r12
	.p2align	4, 0x90
LBB8_38:                                ##   Parent Loop BB8_36 Depth=1
                                        ## =>  This Inner Loop Header: Depth=2
	cmpq	$2048, %r13             ## imm = 0x800
	movl	$2048, %ebx             ## imm = 0x800
	cmovbq	%r13, %rbx
	movl	$2048, %ecx             ## imm = 0x800
	movq	%r14, %rdi
	movq	%r12, %rsi
	movq	%rbx, %rdx
	callq	___memcpy_chk
	movq	%r12, %rdi
	movq	%r15, %rsi
	movq	%rbx, %rdx
	callq	_memcpy
	movq	%r15, %rdi
	movq	%r14, %rsi
	movq	%rbx, %rdx
	callq	_memcpy
	addq	%rbx, %r12
	addq	%rbx, %r15
	subq	%rbx, %r13
	jne	LBB8_38
LBB8_39:                                ##   in Loop: Header=BB8_36 Depth=1
	movq	-2104(%rbp), %rax       ## 8-byte Reload
	movq	%rax, %rcx
	incq	%rcx
	movq	%rcx, %rax
	movq	%rcx, -2104(%rbp)       ## 8-byte Spill
	cmpq	-2136(%rbp), %rcx       ## 8-byte Folded Reload
	jb	LBB8_36
LBB8_40:
	movq	-2112(%rbp), %r13       ## 8-byte Reload
LBB8_41:
	movq	___stack_chk_guard@GOTPCREL(%rip), %rax
	movq	(%rax), %rax
	cmpq	-48(%rbp), %rax
	jne	LBB8_43
## %bb.42:
	movq	%r13, %rax
	addq	$2120, %rsp             ## imm = 0x848
	popq	%rbx
	popq	%r12
	popq	%r13
	popq	%r14
	popq	%r15
	popq	%rbp
	retq
LBB8_43:
	callq	___stack_chk_fail
	.cfi_endproc
                                        ## -- End function
	.globl	_stbi_load_16           ## -- Begin function stbi_load_16
	.p2align	4, 0x90
_stbi_load_16:                          ## @stbi_load_16
	.cfi_startproc
## %bb.0:
	pushq	%rbp
	.cfi_def_cfa_offset 16
	.cfi_offset %rbp, -16
	movq	%rsp, %rbp
	.cfi_def_cfa_register %rbp
	pushq	%r15
	pushq	%r14
	pushq	%r13
	pushq	%r12
	pushq	%rbx
	pushq	%rax
	.cfi_offset %rbx, -56
	.cfi_offset %r12, -48
	.cfi_offset %r13, -40
	.cfi_offset %r14, -32
	.cfi_offset %r15, -24
	movl	%r8d, %r14d
	movq	%rcx, %r15
	movq	%rdx, %r12
	movq	%rsi, %r13
	leaq	L_.str(%rip), %rsi
	callq	_fopen
	testq	%rax, %rax
	je	LBB9_1
## %bb.3:
	movq	%rax, %rbx
	movq	%rax, %rdi
	movq	%r13, %rsi
	movq	%r12, %rdx
	movq	%r15, %rcx
	movl	%r14d, %r8d
	callq	_stbi_load_from_file_16
	movq	%rax, %r14
	movq	%rbx, %rdi
	callq	_fclose
	movq	%r14, %rax
	jmp	LBB9_2
LBB9_1:
	leaq	L_.str.1(%rip), %rcx
	movq	_stbi__g_failure_reason@TLVP(%rip), %rdi
	callq	*(%rdi)
	movq	%rcx, (%rax)
	xorl	%eax, %eax
LBB9_2:
	addq	$8, %rsp
	popq	%rbx
	popq	%r12
	popq	%r13
	popq	%r14
	popq	%r15
	popq	%rbp
	retq
	.cfi_endproc
                                        ## -- End function
	.globl	_stbi_load_16_from_memory ## -- Begin function stbi_load_16_from_memory
	.p2align	4, 0x90
_stbi_load_16_from_memory:              ## @stbi_load_16_from_memory
	.cfi_startproc
## %bb.0:
	pushq	%rbp
	.cfi_def_cfa_offset 16
	.cfi_offset %rbp, -16
	movq	%rsp, %rbp
	.cfi_def_cfa_register %rbp
	subq	$240, %rsp
	movq	___stack_chk_guard@GOTPCREL(%rip), %rax
	movq	(%rax), %rax
	movq	%rax, -8(%rbp)
	movq	$0, -216(%rbp)
	movl	$0, -184(%rbp)
	movl	$0, -48(%rbp)
	movq	%rdi, -24(%rbp)
	movq	%rdi, -40(%rbp)
	movslq	%esi, %rax
	addq	%rdi, %rax
	movq	%rax, -16(%rbp)
	movq	%rax, -32(%rbp)
	leaq	-232(%rbp), %rdi
	movq	%rdx, %rsi
	movq	%rcx, %rdx
	movq	%r8, %rcx
	movl	%r9d, %r8d
	callq	_stbi__load_and_postprocess_16bit
	movq	___stack_chk_guard@GOTPCREL(%rip), %rcx
	movq	(%rcx), %rcx
	cmpq	-8(%rbp), %rcx
	jne	LBB10_2
## %bb.1:
	addq	$240, %rsp
	popq	%rbp
	retq
LBB10_2:
	callq	___stack_chk_fail
	.cfi_endproc
                                        ## -- End function
	.globl	_stbi_load_16_from_callbacks ## -- Begin function stbi_load_16_from_callbacks
	.p2align	4, 0x90
_stbi_load_16_from_callbacks:           ## @stbi_load_16_from_callbacks
	.cfi_startproc
## %bb.0:
	pushq	%rbp
	.cfi_def_cfa_offset 16
	.cfi_offset %rbp, -16
	movq	%rsp, %rbp
	.cfi_def_cfa_register %rbp
	pushq	%r15
	pushq	%r14
	pushq	%r13
	pushq	%r12
	pushq	%rbx
	subq	$232, %rsp
	.cfi_offset %rbx, -56
	.cfi_offset %r12, -48
	.cfi_offset %r13, -40
	.cfi_offset %r14, -32
	.cfi_offset %r15, -24
	movl	%r9d, %r14d
	movq	%r8, %r15
	movq	%rcx, %r12
	movq	%rdx, %r13
	movq	___stack_chk_guard@GOTPCREL(%rip), %rax
	movq	(%rax), %rax
	movq	%rax, -48(%rbp)
	movq	16(%rdi), %rax
	movq	%rax, -240(%rbp)
	movq	(%rdi), %rax
	movq	8(%rdi), %rcx
	movq	%rcx, -248(%rbp)
	movq	%rax, -256(%rbp)
	movq	%rsi, -232(%rbp)
	movabsq	$549755813889, %rcx     ## imm = 0x8000000001
	movq	%rcx, -224(%rbp)
	movl	$0, -88(%rbp)
	leaq	-216(%rbp), %rbx
	movq	%rbx, -64(%rbp)
	movq	%rbx, -80(%rbp)
	movq	%rsi, %rdi
	movq	%rbx, %rsi
	movl	$128, %edx
	callq	*%rax
	movl	-80(%rbp), %ecx
	subl	-64(%rbp), %ecx
	addl	%ecx, -88(%rbp)
	testl	%eax, %eax
	je	LBB11_1
## %bb.2:
	movq	%rbx, -80(%rbp)
	cltq
	leaq	-216(%rbp,%rax), %rax
	jmp	LBB11_3
LBB11_1:
	movl	$0, -224(%rbp)
	movq	%rbx, -80(%rbp)
	leaq	-215(%rbp), %rax
	movb	$0, -216(%rbp)
LBB11_3:
	movq	%rax, -72(%rbp)
	movq	%rax, -56(%rbp)
	leaq	-272(%rbp), %rdi
	movq	%r13, %rsi
	movq	%r12, %rdx
	movq	%r15, %rcx
	movl	%r14d, %r8d
	callq	_stbi__load_and_postprocess_16bit
	movq	___stack_chk_guard@GOTPCREL(%rip), %rcx
	movq	(%rcx), %rcx
	cmpq	-48(%rbp), %rcx
	jne	LBB11_5
## %bb.4:
	addq	$232, %rsp
	popq	%rbx
	popq	%r12
	popq	%r13
	popq	%r14
	popq	%r15
	popq	%rbp
	retq
LBB11_5:
	callq	___stack_chk_fail
	.cfi_endproc
                                        ## -- End function
	.globl	_stbi_load_from_memory  ## -- Begin function stbi_load_from_memory
	.p2align	4, 0x90
_stbi_load_from_memory:                 ## @stbi_load_from_memory
	.cfi_startproc
## %bb.0:
	pushq	%rbp
	.cfi_def_cfa_offset 16
	.cfi_offset %rbp, -16
	movq	%rsp, %rbp
	.cfi_def_cfa_register %rbp
	subq	$240, %rsp
	movq	___stack_chk_guard@GOTPCREL(%rip), %rax
	movq	(%rax), %rax
	movq	%rax, -8(%rbp)
	movq	$0, -216(%rbp)
	movl	$0, -184(%rbp)
	movl	$0, -48(%rbp)
	movq	%rdi, -24(%rbp)
	movq	%rdi, -40(%rbp)
	movslq	%esi, %rax
	addq	%rdi, %rax
	movq	%rax, -16(%rbp)
	movq	%rax, -32(%rbp)
	leaq	-232(%rbp), %rdi
	movq	%rdx, %rsi
	movq	%rcx, %rdx
	movq	%r8, %rcx
	movl	%r9d, %r8d
	callq	_stbi__load_and_postprocess_8bit
	movq	___stack_chk_guard@GOTPCREL(%rip), %rcx
	movq	(%rcx), %rcx
	cmpq	-8(%rbp), %rcx
	jne	LBB12_2
## %bb.1:
	addq	$240, %rsp
	popq	%rbp
	retq
LBB12_2:
	callq	___stack_chk_fail
	.cfi_endproc
                                        ## -- End function
	.globl	_stbi_load_from_callbacks ## -- Begin function stbi_load_from_callbacks
	.p2align	4, 0x90
_stbi_load_from_callbacks:              ## @stbi_load_from_callbacks
	.cfi_startproc
## %bb.0:
	pushq	%rbp
	.cfi_def_cfa_offset 16
	.cfi_offset %rbp, -16
	movq	%rsp, %rbp
	.cfi_def_cfa_register %rbp
	pushq	%r15
	pushq	%r14
	pushq	%r13
	pushq	%r12
	pushq	%rbx
	subq	$232, %rsp
	.cfi_offset %rbx, -56
	.cfi_offset %r12, -48
	.cfi_offset %r13, -40
	.cfi_offset %r14, -32
	.cfi_offset %r15, -24
	movl	%r9d, %r14d
	movq	%r8, %r15
	movq	%rcx, %r12
	movq	%rdx, %r13
	movq	___stack_chk_guard@GOTPCREL(%rip), %rax
	movq	(%rax), %rax
	movq	%rax, -48(%rbp)
	movq	16(%rdi), %rax
	movq	%rax, -240(%rbp)
	movq	(%rdi), %rax
	movq	8(%rdi), %rcx
	movq	%rcx, -248(%rbp)
	movq	%rax, -256(%rbp)
	movq	%rsi, -232(%rbp)
	movabsq	$549755813889, %rcx     ## imm = 0x8000000001
	movq	%rcx, -224(%rbp)
	movl	$0, -88(%rbp)
	leaq	-216(%rbp), %rbx
	movq	%rbx, -64(%rbp)
	movq	%rbx, -80(%rbp)
	movq	%rsi, %rdi
	movq	%rbx, %rsi
	movl	$128, %edx
	callq	*%rax
	movl	-80(%rbp), %ecx
	subl	-64(%rbp), %ecx
	addl	%ecx, -88(%rbp)
	testl	%eax, %eax
	je	LBB13_1
## %bb.2:
	movq	%rbx, -80(%rbp)
	cltq
	leaq	-216(%rbp,%rax), %rax
	jmp	LBB13_3
LBB13_1:
	movl	$0, -224(%rbp)
	movq	%rbx, -80(%rbp)
	leaq	-215(%rbp), %rax
	movb	$0, -216(%rbp)
LBB13_3:
	movq	%rax, -72(%rbp)
	movq	%rax, -56(%rbp)
	leaq	-272(%rbp), %rdi
	movq	%r13, %rsi
	movq	%r12, %rdx
	movq	%r15, %rcx
	movl	%r14d, %r8d
	callq	_stbi__load_and_postprocess_8bit
	movq	___stack_chk_guard@GOTPCREL(%rip), %rcx
	movq	(%rcx), %rcx
	cmpq	-48(%rbp), %rcx
	jne	LBB13_5
## %bb.4:
	addq	$232, %rsp
	popq	%rbx
	popq	%r12
	popq	%r13
	popq	%r14
	popq	%r15
	popq	%rbp
	retq
LBB13_5:
	callq	___stack_chk_fail
	.cfi_endproc
                                        ## -- End function
	.globl	_stbi_loadf_from_memory ## -- Begin function stbi_loadf_from_memory
	.p2align	4, 0x90
_stbi_loadf_from_memory:                ## @stbi_loadf_from_memory
	.cfi_startproc
## %bb.0:
	pushq	%rbp
	.cfi_def_cfa_offset 16
	.cfi_offset %rbp, -16
	movq	%rsp, %rbp
	.cfi_def_cfa_register %rbp
	subq	$240, %rsp
	movq	___stack_chk_guard@GOTPCREL(%rip), %rax
	movq	(%rax), %rax
	movq	%rax, -8(%rbp)
	movq	$0, -216(%rbp)
	movl	$0, -184(%rbp)
	movl	$0, -48(%rbp)
	movq	%rdi, -24(%rbp)
	movq	%rdi, -40(%rbp)
	movslq	%esi, %rax
	addq	%rdi, %rax
	movq	%rax, -16(%rbp)
	movq	%rax, -32(%rbp)
	leaq	-232(%rbp), %rdi
	movq	%rdx, %rsi
	movq	%rcx, %rdx
	movq	%r8, %rcx
	movl	%r9d, %r8d
	callq	_stbi__loadf_main
	movq	___stack_chk_guard@GOTPCREL(%rip), %rcx
	movq	(%rcx), %rcx
	cmpq	-8(%rbp), %rcx
	jne	LBB14_2
## %bb.1:
	addq	$240, %rsp
	popq	%rbp
	retq
LBB14_2:
	callq	___stack_chk_fail
	.cfi_endproc
                                        ## -- End function
	.section	__TEXT,__literal16,16byte_literals
	.p2align	4               ## -- Begin function stbi__loadf_main
LCPI15_0:
	.long	1132396544              ## float 255
	.long	1132396544              ## float 255
	.long	1132396544              ## float 255
	.long	1132396544              ## float 255
	.section	__TEXT,__literal4,4byte_literals
	.p2align	2
LCPI15_1:
	.long	1132396544              ## float 255
	.section	__TEXT,__text,regular,pure_instructions
	.p2align	4, 0x90
_stbi__loadf_main:                      ## @stbi__loadf_main
	.cfi_startproc
## %bb.0:
	pushq	%rbp
	.cfi_def_cfa_offset 16
	.cfi_offset %rbp, -16
	movq	%rsp, %rbp
	.cfi_def_cfa_register %rbp
	pushq	%r15
	pushq	%r14
	pushq	%r13
	pushq	%r12
	pushq	%rbx
	subq	$280, %rsp              ## imm = 0x118
	.cfi_offset %rbx, -56
	.cfi_offset %r12, -48
	.cfi_offset %r13, -40
	.cfi_offset %r14, -32
	.cfi_offset %r15, -24
	movl	%r8d, %r15d
	movq	%rcx, %r14
	movq	%rdx, %r13
	movq	%rsi, %rbx
	callq	_stbi__load_and_postprocess_8bit
	testq	%rax, %rax
	je	LBB15_42
## %bb.1:
	movq	%rax, %r12
	movl	(%rbx), %ecx
	movl	(%r13), %ebx
	testl	%r15d, %r15d
	jne	LBB15_3
## %bb.2:
	movl	(%r14), %r15d
LBB15_3:
	movl	%ebx, %eax
	orl	%ecx, %eax
	js	LBB15_11
## %bb.4:
	testl	%ebx, %ebx
	je	LBB15_6
## %bb.5:
	movl	$2147483647, %eax       ## imm = 0x7FFFFFFF
	xorl	%edx, %edx
	idivl	%ebx
	cmpl	%ecx, %eax
	jl	LBB15_11
LBB15_6:
	imull	%ecx, %ebx
	movl	%r15d, %eax
	orl	%ebx, %eax
	js	LBB15_11
## %bb.7:
	testl	%r15d, %r15d
	je	LBB15_9
## %bb.8:
	movl	$2147483647, %eax       ## imm = 0x7FFFFFFF
	xorl	%edx, %edx
	idivl	%r15d
	cmpl	%ebx, %eax
	jl	LBB15_11
LBB15_9:
	movl	%r15d, %eax
	imull	%ebx, %eax
	cmpl	$536870911, %eax        ## imm = 0x1FFFFFFF
	ja	LBB15_11
## %bb.10:
	shll	$2, %eax
	movslq	%eax, %rdi
	callq	_malloc
	testq	%rax, %rax
	je	LBB15_11
## %bb.12:
	movq	%rax, %r13
	movl	%r15d, %eax
	andl	$1, %eax
	cmpl	$1, %eax
	movl	%r15d, %edx
	sbbl	$0, %edx
	testl	%ebx, %ebx
	jle	LBB15_41
## %bb.13:
	movss	_stbi__l2h_gamma(%rip), %xmm0 ## xmm0 = mem[0],zero,zero,zero
	cvtss2sd	%xmm0, %xmm2
	movss	_stbi__l2h_scale(%rip), %xmm0 ## xmm0 = mem[0],zero,zero,zero
	cvtss2sd	%xmm0, %xmm0
	movapd	%xmm0, -320(%rbp)       ## 16-byte Spill
	movl	%r15d, -120(%rbp)       ## 4-byte Spill
	movslq	%r15d, %rcx
	movl	%edx, %eax
	movq	%rax, -208(%rbp)        ## 8-byte Spill
	movl	%ebx, -116(%rbp)        ## 4-byte Spill
	movl	%ebx, %esi
	movq	%rsi, -184(%rbp)        ## 8-byte Spill
                                        ## kill: def $eax killed $eax killed $rax def $rax
	andl	$-4, %eax
	movq	%rax, -264(%rbp)        ## 8-byte Spill
	leaq	-4(%rax), %rax
	movq	%rax, -256(%rbp)        ## 8-byte Spill
	shrq	$2, %rax
	leal	1(%rax), %esi
	movddup	%xmm2, %xmm3            ## xmm3 = xmm2[0,0]
	movddup	%xmm0, %xmm0            ## xmm0 = xmm0[0,0]
	movapd	%xmm0, -224(%rbp)       ## 16-byte Spill
	andl	$1, %esi
	leaq	16(%r13), %rdi
	movq	%rcx, -48(%rbp)         ## 8-byte Spill
	leaq	(,%rcx,4), %r15
	leaq	4(%r12), %rcx
	movq	%rsi, -248(%rbp)        ## 8-byte Spill
	subq	%rax, %rsi
	decq	%rsi
	movq	%rsi, -232(%rbp)        ## 8-byte Spill
	movss	LCPI15_1(%rip), %xmm1   ## xmm1 = mem[0],zero,zero,zero
	movapd	%xmm3, -160(%rbp)       ## 16-byte Spill
	unpckhpd	%xmm3, %xmm3    ## xmm3 = xmm3[1,1]
	movapd	%xmm3, -144(%rbp)       ## 16-byte Spill
	movq	%r12, -176(%rbp)        ## 8-byte Spill
	movq	%r12, %r14
	xorl	%r12d, %r12d
	movq	%r13, -168(%rbp)        ## 8-byte Spill
	movapd	%xmm2, -304(%rbp)       ## 16-byte Spill
	movl	%edx, -84(%rbp)         ## 4-byte Spill
	movq	%r15, -240(%rbp)        ## 8-byte Spill
	.p2align	4, 0x90
LBB15_14:                               ## =>This Loop Header: Depth=1
                                        ##     Child Loop BB15_20 Depth 2
                                        ##     Child Loop BB15_24 Depth 2
	movq	%rcx, -192(%rbp)        ## 8-byte Spill
	movq	%rdi, -200(%rbp)        ## 8-byte Spill
	testl	%edx, %edx
	jle	LBB15_25
## %bb.15:                              ##   in Loop: Header=BB15_14 Depth=1
	cmpl	$4, -84(%rbp)           ## 4-byte Folded Reload
	jae	LBB15_17
## %bb.16:                              ##   in Loop: Header=BB15_14 Depth=1
	xorl	%ebx, %ebx
	jmp	LBB15_24
	.p2align	4, 0x90
LBB15_17:                               ##   in Loop: Header=BB15_14 Depth=1
	movq	%r14, -272(%rbp)        ## 8-byte Spill
	movq	%r12, -280(%rbp)        ## 8-byte Spill
	cmpq	$0, -256(%rbp)          ## 8-byte Folded Reload
	je	LBB15_18
## %bb.19:                              ##   in Loop: Header=BB15_14 Depth=1
	movq	-232(%rbp), %r14        ## 8-byte Reload
	xorl	%ebx, %ebx
	movq	-200(%rbp), %r15        ## 8-byte Reload
	movq	-192(%rbp), %r12        ## 8-byte Reload
	.p2align	4, 0x90
LBB15_20:                               ##   Parent Loop BB15_14 Depth=1
                                        ## =>  This Inner Loop Header: Depth=2
	pmovzxbd	-4(%r12,%rbx), %xmm0 ## xmm0 = mem[0],zero,zero,zero,mem[1],zero,zero,zero,mem[2],zero,zero,zero,mem[3],zero,zero,zero
	cvtdq2ps	%xmm0, %xmm0
	movaps	LCPI15_0(%rip), %xmm1   ## xmm1 = [2.55E+2,2.55E+2,2.55E+2,2.55E+2]
	divps	%xmm1, %xmm0
	cvtps2pd	%xmm0, %xmm1
	movaps	%xmm1, -64(%rbp)        ## 16-byte Spill
	movhlps	%xmm0, %xmm0            ## xmm0 = xmm0[1,1]
	cvtps2pd	%xmm0, %xmm0
	movaps	%xmm0, -112(%rbp)       ## 16-byte Spill
	movaps	%xmm1, %xmm0
	movaps	-160(%rbp), %xmm1       ## 16-byte Reload
	callq	_pow
	movaps	%xmm0, -80(%rbp)        ## 16-byte Spill
	movaps	-64(%rbp), %xmm0        ## 16-byte Reload
	movhlps	%xmm0, %xmm0            ## xmm0 = xmm0[1,1]
	movaps	-144(%rbp), %xmm1       ## 16-byte Reload
	callq	_pow
	movaps	-80(%rbp), %xmm1        ## 16-byte Reload
	movlhps	%xmm0, %xmm1            ## xmm1 = xmm1[0],xmm0[0]
	movaps	%xmm1, -80(%rbp)        ## 16-byte Spill
	movaps	-112(%rbp), %xmm0       ## 16-byte Reload
	movaps	-160(%rbp), %xmm1       ## 16-byte Reload
	callq	_pow
	movaps	%xmm0, -64(%rbp)        ## 16-byte Spill
	movapd	-112(%rbp), %xmm0       ## 16-byte Reload
	unpckhpd	%xmm0, %xmm0    ## xmm0 = xmm0[1,1]
	movaps	-144(%rbp), %xmm1       ## 16-byte Reload
	callq	_pow
	movapd	-64(%rbp), %xmm1        ## 16-byte Reload
	unpcklpd	%xmm0, %xmm1    ## xmm1 = xmm1[0],xmm0[0]
	movapd	-224(%rbp), %xmm0       ## 16-byte Reload
	mulpd	%xmm0, %xmm1
	movapd	%xmm1, %xmm2
	movapd	-80(%rbp), %xmm1        ## 16-byte Reload
	mulpd	%xmm0, %xmm1
	cvtpd2ps	%xmm1, %xmm0
	cvtpd2ps	%xmm2, %xmm1
	unpcklpd	%xmm1, %xmm0    ## xmm0 = xmm0[0],xmm1[0]
	movupd	%xmm0, -16(%r15,%rbx,4)
	pmovzxbd	(%r12,%rbx), %xmm0 ## xmm0 = mem[0],zero,zero,zero,mem[1],zero,zero,zero,mem[2],zero,zero,zero,mem[3],zero,zero,zero
	cvtdq2ps	%xmm0, %xmm0
	divps	LCPI15_0(%rip), %xmm0
	cvtps2pd	%xmm0, %xmm1
	movaps	%xmm1, -64(%rbp)        ## 16-byte Spill
	movhlps	%xmm0, %xmm0            ## xmm0 = xmm0[1,1]
	cvtps2pd	%xmm0, %xmm0
	movaps	%xmm0, -112(%rbp)       ## 16-byte Spill
	movaps	%xmm1, %xmm0
	movaps	-160(%rbp), %xmm1       ## 16-byte Reload
	callq	_pow
	movaps	%xmm0, -80(%rbp)        ## 16-byte Spill
	movaps	-64(%rbp), %xmm0        ## 16-byte Reload
	movhlps	%xmm0, %xmm0            ## xmm0 = xmm0[1,1]
	movaps	-144(%rbp), %xmm1       ## 16-byte Reload
	callq	_pow
	movaps	-80(%rbp), %xmm1        ## 16-byte Reload
	movlhps	%xmm0, %xmm1            ## xmm1 = xmm1[0],xmm0[0]
	movaps	%xmm1, -80(%rbp)        ## 16-byte Spill
	movaps	-112(%rbp), %xmm0       ## 16-byte Reload
	movaps	-160(%rbp), %xmm1       ## 16-byte Reload
	callq	_pow
	movaps	%xmm0, -64(%rbp)        ## 16-byte Spill
	movapd	-112(%rbp), %xmm0       ## 16-byte Reload
	unpckhpd	%xmm0, %xmm0    ## xmm0 = xmm0[1,1]
	movaps	-144(%rbp), %xmm1       ## 16-byte Reload
	callq	_pow
	movapd	-64(%rbp), %xmm1        ## 16-byte Reload
	unpcklpd	%xmm0, %xmm1    ## xmm1 = xmm1[0],xmm0[0]
	movapd	-224(%rbp), %xmm0       ## 16-byte Reload
	mulpd	%xmm0, %xmm1
	movapd	%xmm1, %xmm2
	movapd	-80(%rbp), %xmm1        ## 16-byte Reload
	mulpd	%xmm0, %xmm1
	cvtpd2ps	%xmm1, %xmm0
	cvtpd2ps	%xmm2, %xmm1
	unpcklpd	%xmm1, %xmm0    ## xmm0 = xmm0[0],xmm1[0]
	movupd	%xmm0, (%r15,%rbx,4)
	addq	$8, %rbx
	addq	$2, %r14
	jne	LBB15_20
	jmp	LBB15_21
LBB15_18:                               ##   in Loop: Header=BB15_14 Depth=1
	xorl	%ebx, %ebx
LBB15_21:                               ##   in Loop: Header=BB15_14 Depth=1
	cmpq	$0, -248(%rbp)          ## 8-byte Folded Reload
	movq	-280(%rbp), %r12        ## 8-byte Reload
	je	LBB15_23
## %bb.22:                              ##   in Loop: Header=BB15_14 Depth=1
	movq	%r12, %rax
	imulq	-48(%rbp), %rax         ## 8-byte Folded Reload
	addq	%rax, %rbx
	movq	-176(%rbp), %rax        ## 8-byte Reload
	pmovzxbd	(%rax,%rbx), %xmm0 ## xmm0 = mem[0],zero,zero,zero,mem[1],zero,zero,zero,mem[2],zero,zero,zero,mem[3],zero,zero,zero
	cvtdq2ps	%xmm0, %xmm0
	divps	LCPI15_0(%rip), %xmm0
	cvtps2pd	%xmm0, %xmm1
	movaps	%xmm1, -64(%rbp)        ## 16-byte Spill
	movhlps	%xmm0, %xmm0            ## xmm0 = xmm0[1,1]
	cvtps2pd	%xmm0, %xmm0
	movaps	%xmm0, -112(%rbp)       ## 16-byte Spill
	movaps	%xmm1, %xmm0
	movaps	-160(%rbp), %xmm1       ## 16-byte Reload
	callq	_pow
	movaps	%xmm0, -80(%rbp)        ## 16-byte Spill
	movaps	-64(%rbp), %xmm0        ## 16-byte Reload
	movhlps	%xmm0, %xmm0            ## xmm0 = xmm0[1,1]
	movaps	-144(%rbp), %xmm1       ## 16-byte Reload
	callq	_pow
	movaps	-80(%rbp), %xmm1        ## 16-byte Reload
	movlhps	%xmm0, %xmm1            ## xmm1 = xmm1[0],xmm0[0]
	movaps	%xmm1, -80(%rbp)        ## 16-byte Spill
	movaps	-112(%rbp), %xmm0       ## 16-byte Reload
	movaps	-160(%rbp), %xmm1       ## 16-byte Reload
	callq	_pow
	movaps	%xmm0, -64(%rbp)        ## 16-byte Spill
	movapd	-112(%rbp), %xmm0       ## 16-byte Reload
	unpckhpd	%xmm0, %xmm0    ## xmm0 = xmm0[1,1]
	movaps	-144(%rbp), %xmm1       ## 16-byte Reload
	callq	_pow
	movapd	-64(%rbp), %xmm1        ## 16-byte Reload
	unpcklpd	%xmm0, %xmm1    ## xmm1 = xmm1[0],xmm0[0]
	movapd	-224(%rbp), %xmm0       ## 16-byte Reload
	mulpd	%xmm0, %xmm1
	movapd	%xmm1, %xmm2
	movapd	-80(%rbp), %xmm1        ## 16-byte Reload
	mulpd	%xmm0, %xmm1
	cvtpd2ps	%xmm1, %xmm0
	cvtpd2ps	%xmm2, %xmm1
	unpcklpd	%xmm1, %xmm0    ## xmm0 = xmm0[0],xmm1[0]
	movq	-168(%rbp), %rax        ## 8-byte Reload
	movupd	%xmm0, (%rax,%rbx,4)
LBB15_23:                               ##   in Loop: Header=BB15_14 Depth=1
	movq	-264(%rbp), %rax        ## 8-byte Reload
	movq	%rax, %rbx
	cmpq	-208(%rbp), %rax        ## 8-byte Folded Reload
	movss	LCPI15_1(%rip), %xmm1   ## xmm1 = mem[0],zero,zero,zero
	movapd	-304(%rbp), %xmm2       ## 16-byte Reload
	movq	-240(%rbp), %r15        ## 8-byte Reload
	movq	-272(%rbp), %r14        ## 8-byte Reload
	je	LBB15_25
	.p2align	4, 0x90
LBB15_24:                               ##   Parent Loop BB15_14 Depth=1
                                        ## =>  This Inner Loop Header: Depth=2
	movzbl	(%r14,%rbx), %eax
	xorps	%xmm0, %xmm0
	cvtsi2ssl	%eax, %xmm0
	divss	%xmm1, %xmm0
	cvtss2sd	%xmm0, %xmm0
	movapd	%xmm2, %xmm1
	callq	_pow
	movapd	-304(%rbp), %xmm2       ## 16-byte Reload
	movss	LCPI15_1(%rip), %xmm1   ## xmm1 = mem[0],zero,zero,zero
	mulsd	-320(%rbp), %xmm0       ## 16-byte Folded Reload
	cvtsd2ss	%xmm0, %xmm0
	movss	%xmm0, (%r13,%rbx,4)
	incq	%rbx
	cmpq	%rbx, -208(%rbp)        ## 8-byte Folded Reload
	jne	LBB15_24
LBB15_25:                               ##   in Loop: Header=BB15_14 Depth=1
	incq	%r12
	movq	-200(%rbp), %rdi        ## 8-byte Reload
	addq	%r15, %rdi
	movq	-48(%rbp), %rax         ## 8-byte Reload
	movq	-192(%rbp), %rcx        ## 8-byte Reload
	addq	%rax, %rcx
	addq	%r15, %r13
	addq	%rax, %r14
	cmpq	-184(%rbp), %r12        ## 8-byte Folded Reload
	movl	-84(%rbp), %edx         ## 4-byte Reload
	jne	LBB15_14
## %bb.26:
	movl	-120(%rbp), %eax        ## 4-byte Reload
	testb	$1, %al
	movq	-176(%rbp), %r12        ## 8-byte Reload
	movq	-168(%rbp), %r13        ## 8-byte Reload
	movq	-184(%rbp), %r14        ## 8-byte Reload
	movl	-116(%rbp), %ecx        ## 4-byte Reload
	movaps	LCPI15_0(%rip), %xmm0   ## xmm0 = [2.55E+2,2.55E+2,2.55E+2,2.55E+2]
	jne	LBB15_41
## %bb.27:
	movslq	%edx, %r8
	xorl	%r10d, %r10d
	cmpl	$4, %ecx
	jb	LBB15_36
## %bb.28:
	cmpl	$1, %eax
	jne	LBB15_36
## %bb.29:
	movl	%r14d, %r10d
	andl	$-4, %r10d
	leaq	-4(%r10), %rcx
	movq	%rcx, %rax
	shrq	$2, %rax
	incq	%rax
	movl	%eax, %r9d
	andl	$1, %r9d
	testq	%rcx, %rcx
	je	LBB15_30
## %bb.31:
	movq	-48(%rbp), %rdx         ## 8-byte Reload
	movq	%rdx, %rcx
	shlq	$4, %rcx
	movq	%r13, %rdi
	addq	%rcx, %rdi
	leaq	(,%rdx,8), %r11
	leaq	(%r12,%rdx,4), %rcx
	movl	$1, %edx
	subq	%rax, %rdx
	leaq	-1(%r9,%rdx), %rdx
	xorl	%esi, %esi
	movq	%r8, %rax
	movaps	%xmm0, %xmm2
LBB15_32:                               ## =>This Inner Loop Header: Depth=1
	pmovzxbd	(%r12,%rax), %xmm0 ## xmm0 = mem[0],zero,zero,zero,mem[1],zero,zero,zero,mem[2],zero,zero,zero,mem[3],zero,zero,zero
	cvtdq2ps	%xmm0, %xmm0
	divps	%xmm2, %xmm0
	movups	%xmm0, (%r13,%rax,4)
	pmovzxbd	(%rcx,%rax), %xmm0 ## xmm0 = mem[0],zero,zero,zero,mem[1],zero,zero,zero,mem[2],zero,zero,zero,mem[3],zero,zero,zero
	cvtdq2ps	%xmm0, %xmm0
	divps	%xmm2, %xmm0
	movups	%xmm0, (%rdi,%rax,4)
	addq	$8, %rsi
	addq	%r11, %rax
	addq	$2, %rdx
	jne	LBB15_32
	jmp	LBB15_33
LBB15_11:
	movq	%r12, %rdi
	callq	_free
	leaq	L_.str.67(%rip), %rcx
	jmp	LBB15_43
LBB15_42:
	leaq	L_.str.47(%rip), %rcx
LBB15_43:
	movq	_stbi__g_failure_reason@TLVP(%rip), %rdi
	callq	*(%rdi)
	movq	%rcx, (%rax)
	xorl	%r13d, %r13d
LBB15_44:
	movq	%r13, %rax
	addq	$280, %rsp              ## imm = 0x118
	popq	%rbx
	popq	%r12
	popq	%r13
	popq	%r14
	popq	%r15
	popq	%rbp
	retq
LBB15_30:
	xorl	%esi, %esi
LBB15_33:
	testq	%r9, %r9
	je	LBB15_35
## %bb.34:
	imulq	-48(%rbp), %rsi         ## 8-byte Folded Reload
	addq	%r8, %rsi
	pmovzxbd	(%r12,%rsi), %xmm0 ## xmm0 = mem[0],zero,zero,zero,mem[1],zero,zero,zero,mem[2],zero,zero,zero,mem[3],zero,zero,zero
	cvtdq2ps	%xmm0, %xmm0
	divps	LCPI15_0(%rip), %xmm0
	movups	%xmm0, (%r13,%rsi,4)
LBB15_35:
	cmpq	%r14, %r10
	je	LBB15_41
LBB15_36:
	movq	%r10, %rax
	notq	%rax
	testb	$1, %r14b
	je	LBB15_38
## %bb.37:
	movq	%r10, %rcx
	imulq	-48(%rbp), %rcx         ## 8-byte Folded Reload
	addq	%r8, %rcx
	movzbl	(%r12,%rcx), %edx
	xorps	%xmm0, %xmm0
	cvtsi2ssl	%edx, %xmm0
	divss	LCPI15_1(%rip), %xmm0
	movss	%xmm0, (%r13,%rcx,4)
	orq	$1, %r10
LBB15_38:
	addq	%r14, %rax
	je	LBB15_41
## %bb.39:
	movq	%r14, %rcx
	subq	%r10, %rcx
	movq	%r10, %r14
	movq	-48(%rbp), %rax         ## 8-byte Reload
	imulq	%rax, %r14
	addq	%r8, %r14
	incq	%r10
	imulq	%rax, %r10
	leaq	(,%rax,8), %r9
	leaq	(%rax,%rax), %r11
	leaq	(,%r8,4), %rax
	leaq	(%rax,%r10,4), %r15
	addq	%r8, %r10
	addq	%r12, %r10
	leaq	(%r12,%r14), %rdx
	xorl	%eax, %eax
	movq	%r13, %rsi
LBB15_40:                               ## =>This Inner Loop Header: Depth=1
	movzbl	(%rdx,%rax), %edi
	xorps	%xmm0, %xmm0
	cvtsi2ssl	%edi, %xmm0
	divss	%xmm1, %xmm0
	movss	%xmm0, (%rsi,%r14,4)
	movzbl	(%r10,%rax), %edi
	xorps	%xmm0, %xmm0
	cvtsi2ssl	%edi, %xmm0
	divss	%xmm1, %xmm0
	movss	%xmm0, (%rsi,%r15)
	addq	%r9, %rsi
	addq	%r11, %rax
	addq	$-2, %rcx
	jne	LBB15_40
LBB15_41:
	movq	%r12, %rdi
	callq	_free
	jmp	LBB15_44
	.cfi_endproc
                                        ## -- End function
	.globl	_stbi_loadf_from_callbacks ## -- Begin function stbi_loadf_from_callbacks
	.p2align	4, 0x90
_stbi_loadf_from_callbacks:             ## @stbi_loadf_from_callbacks
	.cfi_startproc
## %bb.0:
	pushq	%rbp
	.cfi_def_cfa_offset 16
	.cfi_offset %rbp, -16
	movq	%rsp, %rbp
	.cfi_def_cfa_register %rbp
	pushq	%r15
	pushq	%r14
	pushq	%r13
	pushq	%r12
	pushq	%rbx
	subq	$232, %rsp
	.cfi_offset %rbx, -56
	.cfi_offset %r12, -48
	.cfi_offset %r13, -40
	.cfi_offset %r14, -32
	.cfi_offset %r15, -24
	movl	%r9d, %r14d
	movq	%r8, %r15
	movq	%rcx, %r12
	movq	%rdx, %r13
	movq	___stack_chk_guard@GOTPCREL(%rip), %rax
	movq	(%rax), %rax
	movq	%rax, -48(%rbp)
	movq	16(%rdi), %rax
	movq	%rax, -240(%rbp)
	movq	(%rdi), %rax
	movq	8(%rdi), %rcx
	movq	%rcx, -248(%rbp)
	movq	%rax, -256(%rbp)
	movq	%rsi, -232(%rbp)
	movabsq	$549755813889, %rcx     ## imm = 0x8000000001
	movq	%rcx, -224(%rbp)
	movl	$0, -88(%rbp)
	leaq	-216(%rbp), %rbx
	movq	%rbx, -64(%rbp)
	movq	%rbx, -80(%rbp)
	movq	%rsi, %rdi
	movq	%rbx, %rsi
	movl	$128, %edx
	callq	*%rax
	movl	-80(%rbp), %ecx
	subl	-64(%rbp), %ecx
	addl	%ecx, -88(%rbp)
	testl	%eax, %eax
	je	LBB16_1
## %bb.2:
	movq	%rbx, -80(%rbp)
	cltq
	leaq	-216(%rbp,%rax), %rax
	jmp	LBB16_3
LBB16_1:
	movl	$0, -224(%rbp)
	movq	%rbx, -80(%rbp)
	leaq	-215(%rbp), %rax
	movb	$0, -216(%rbp)
LBB16_3:
	movq	%rax, -72(%rbp)
	movq	%rax, -56(%rbp)
	leaq	-272(%rbp), %rdi
	movq	%r13, %rsi
	movq	%r12, %rdx
	movq	%r15, %rcx
	movl	%r14d, %r8d
	callq	_stbi__loadf_main
	movq	___stack_chk_guard@GOTPCREL(%rip), %rcx
	movq	(%rcx), %rcx
	cmpq	-48(%rbp), %rcx
	jne	LBB16_5
## %bb.4:
	addq	$232, %rsp
	popq	%rbx
	popq	%r12
	popq	%r13
	popq	%r14
	popq	%r15
	popq	%rbp
	retq
LBB16_5:
	callq	___stack_chk_fail
	.cfi_endproc
                                        ## -- End function
	.globl	_stbi_loadf             ## -- Begin function stbi_loadf
	.p2align	4, 0x90
_stbi_loadf:                            ## @stbi_loadf
	.cfi_startproc
## %bb.0:
	pushq	%rbp
	.cfi_def_cfa_offset 16
	.cfi_offset %rbp, -16
	movq	%rsp, %rbp
	.cfi_def_cfa_register %rbp
	pushq	%r15
	pushq	%r14
	pushq	%r13
	pushq	%r12
	pushq	%rbx
	subq	$248, %rsp
	.cfi_offset %rbx, -56
	.cfi_offset %r12, -48
	.cfi_offset %r13, -40
	.cfi_offset %r14, -32
	.cfi_offset %r15, -24
	movl	%r8d, %r14d
	movq	%rcx, %rbx
	movq	%rdx, %r12
	movq	%rsi, %r13
	movq	___stack_chk_guard@GOTPCREL(%rip), %rax
	movq	(%rax), %rax
	movq	%rax, -48(%rbp)
	leaq	L_.str(%rip), %rsi
	callq	_fopen
	testq	%rax, %rax
	je	LBB17_1
## %bb.2:
	movq	%rax, %r15
	movq	%rbx, -288(%rbp)        ## 8-byte Spill
	movl	%r14d, -276(%rbp)       ## 4-byte Spill
	movq	_stbi__stdio_callbacks+16(%rip), %rax
	movq	%rax, -240(%rbp)
	movq	_stbi__stdio_callbacks+8(%rip), %rax
	movq	%rax, -248(%rbp)
	movq	_stbi__stdio_callbacks(%rip), %rax
	movq	%rax, -256(%rbp)
	movq	%r15, -232(%rbp)
	movabsq	$549755813889, %rcx     ## imm = 0x8000000001
	movq	%rcx, -224(%rbp)
	movl	$0, -88(%rbp)
	leaq	-216(%rbp), %r14
	movq	%r14, -64(%rbp)
	movq	%r14, -80(%rbp)
	movq	%r15, %rdi
	movq	%r14, %rsi
	movl	$128, %edx
	callq	*%rax
	movl	-80(%rbp), %ecx
	subl	-64(%rbp), %ecx
	addl	%ecx, -88(%rbp)
	testl	%eax, %eax
	je	LBB17_3
## %bb.4:
	movq	%r14, -80(%rbp)
	cltq
	leaq	-216(%rbp,%rax), %rax
	jmp	LBB17_5
LBB17_1:
	leaq	L_.str.1(%rip), %rcx
	movq	_stbi__g_failure_reason@TLVP(%rip), %rdi
	callq	*(%rdi)
	movq	%rcx, (%rax)
	xorl	%ebx, %ebx
	jmp	LBB17_6
LBB17_3:
	movl	$0, -224(%rbp)
	movq	%r14, -80(%rbp)
	leaq	-215(%rbp), %rax
	movb	$0, -216(%rbp)
LBB17_5:
	movq	%rax, -72(%rbp)
	movq	%rax, -56(%rbp)
	leaq	-272(%rbp), %rdi
	movq	%r13, %rsi
	movq	%r12, %rdx
	movq	-288(%rbp), %rcx        ## 8-byte Reload
	movl	-276(%rbp), %r8d        ## 4-byte Reload
	callq	_stbi__loadf_main
	movq	%rax, %rbx
	movq	%r15, %rdi
	callq	_fclose
LBB17_6:
	movq	___stack_chk_guard@GOTPCREL(%rip), %rax
	movq	(%rax), %rax
	cmpq	-48(%rbp), %rax
	jne	LBB17_8
## %bb.7:
	movq	%rbx, %rax
	addq	$248, %rsp
	popq	%rbx
	popq	%r12
	popq	%r13
	popq	%r14
	popq	%r15
	popq	%rbp
	retq
LBB17_8:
	callq	___stack_chk_fail
	.cfi_endproc
                                        ## -- End function
	.globl	_stbi_loadf_from_file   ## -- Begin function stbi_loadf_from_file
	.p2align	4, 0x90
_stbi_loadf_from_file:                  ## @stbi_loadf_from_file
	.cfi_startproc
## %bb.0:
	pushq	%rbp
	.cfi_def_cfa_offset 16
	.cfi_offset %rbp, -16
	movq	%rsp, %rbp
	.cfi_def_cfa_register %rbp
	pushq	%r15
	pushq	%r14
	pushq	%r13
	pushq	%r12
	pushq	%rbx
	subq	$232, %rsp
	.cfi_offset %rbx, -56
	.cfi_offset %r12, -48
	.cfi_offset %r13, -40
	.cfi_offset %r14, -32
	.cfi_offset %r15, -24
	movl	%r8d, %r14d
	movq	%rcx, %r15
	movq	%rdx, %r12
	movq	%rsi, %r13
	movq	___stack_chk_guard@GOTPCREL(%rip), %rax
	movq	(%rax), %rax
	movq	%rax, -48(%rbp)
	movq	_stbi__stdio_callbacks+16(%rip), %rax
	movq	%rax, -240(%rbp)
	movq	_stbi__stdio_callbacks+8(%rip), %rax
	movq	%rax, -248(%rbp)
	movq	_stbi__stdio_callbacks(%rip), %rax
	movq	%rax, -256(%rbp)
	movq	%rdi, -232(%rbp)
	movabsq	$549755813889, %rcx     ## imm = 0x8000000001
	movq	%rcx, -224(%rbp)
	movl	$0, -88(%rbp)
	leaq	-216(%rbp), %rbx
	movq	%rbx, -64(%rbp)
	movq	%rbx, -80(%rbp)
	movq	%rbx, %rsi
	movl	$128, %edx
	callq	*%rax
	movl	-80(%rbp), %ecx
	subl	-64(%rbp), %ecx
	addl	%ecx, -88(%rbp)
	testl	%eax, %eax
	je	LBB18_1
## %bb.2:
	movq	%rbx, -80(%rbp)
	cltq
	leaq	-216(%rbp,%rax), %rax
	jmp	LBB18_3
LBB18_1:
	movl	$0, -224(%rbp)
	movq	%rbx, -80(%rbp)
	leaq	-215(%rbp), %rax
	movb	$0, -216(%rbp)
LBB18_3:
	movq	%rax, -72(%rbp)
	movq	%rax, -56(%rbp)
	leaq	-272(%rbp), %rdi
	movq	%r13, %rsi
	movq	%r12, %rdx
	movq	%r15, %rcx
	movl	%r14d, %r8d
	callq	_stbi__loadf_main
	movq	___stack_chk_guard@GOTPCREL(%rip), %rcx
	movq	(%rcx), %rcx
	cmpq	-48(%rbp), %rcx
	jne	LBB18_5
## %bb.4:
	addq	$232, %rsp
	popq	%rbx
	popq	%r12
	popq	%r13
	popq	%r14
	popq	%r15
	popq	%rbp
	retq
LBB18_5:
	callq	___stack_chk_fail
	.cfi_endproc
                                        ## -- End function
	.globl	_stbi_is_hdr_from_memory ## -- Begin function stbi_is_hdr_from_memory
	.p2align	4, 0x90
_stbi_is_hdr_from_memory:               ## @stbi_is_hdr_from_memory
	.cfi_startproc
## %bb.0:
	pushq	%rbp
	.cfi_def_cfa_offset 16
	.cfi_offset %rbp, -16
	movq	%rsp, %rbp
	.cfi_def_cfa_register %rbp
	xorl	%eax, %eax
	popq	%rbp
	retq
	.cfi_endproc
                                        ## -- End function
	.globl	_stbi_is_hdr            ## -- Begin function stbi_is_hdr
	.p2align	4, 0x90
_stbi_is_hdr:                           ## @stbi_is_hdr
	.cfi_startproc
## %bb.0:
	pushq	%rbp
	.cfi_def_cfa_offset 16
	.cfi_offset %rbp, -16
	movq	%rsp, %rbp
	.cfi_def_cfa_register %rbp
	leaq	L_.str(%rip), %rsi
	callq	_fopen
	testq	%rax, %rax
	je	LBB20_2
## %bb.1:
	movq	%rax, %rdi
	callq	_fclose
LBB20_2:
	xorl	%eax, %eax
	popq	%rbp
	retq
	.cfi_endproc
                                        ## -- End function
	.globl	_stbi_is_hdr_from_file  ## -- Begin function stbi_is_hdr_from_file
	.p2align	4, 0x90
_stbi_is_hdr_from_file:                 ## @stbi_is_hdr_from_file
	.cfi_startproc
## %bb.0:
	pushq	%rbp
	.cfi_def_cfa_offset 16
	.cfi_offset %rbp, -16
	movq	%rsp, %rbp
	.cfi_def_cfa_register %rbp
	xorl	%eax, %eax
	popq	%rbp
	retq
	.cfi_endproc
                                        ## -- End function
	.globl	_stbi_is_hdr_from_callbacks ## -- Begin function stbi_is_hdr_from_callbacks
	.p2align	4, 0x90
_stbi_is_hdr_from_callbacks:            ## @stbi_is_hdr_from_callbacks
	.cfi_startproc
## %bb.0:
	pushq	%rbp
	.cfi_def_cfa_offset 16
	.cfi_offset %rbp, -16
	movq	%rsp, %rbp
	.cfi_def_cfa_register %rbp
	xorl	%eax, %eax
	popq	%rbp
	retq
	.cfi_endproc
                                        ## -- End function
	.globl	_stbi_ldr_to_hdr_gamma  ## -- Begin function stbi_ldr_to_hdr_gamma
	.p2align	4, 0x90
_stbi_ldr_to_hdr_gamma:                 ## @stbi_ldr_to_hdr_gamma
	.cfi_startproc
## %bb.0:
	pushq	%rbp
	.cfi_def_cfa_offset 16
	.cfi_offset %rbp, -16
	movq	%rsp, %rbp
	.cfi_def_cfa_register %rbp
	movss	%xmm0, _stbi__l2h_gamma(%rip)
	popq	%rbp
	retq
	.cfi_endproc
                                        ## -- End function
	.globl	_stbi_ldr_to_hdr_scale  ## -- Begin function stbi_ldr_to_hdr_scale
	.p2align	4, 0x90
_stbi_ldr_to_hdr_scale:                 ## @stbi_ldr_to_hdr_scale
	.cfi_startproc
## %bb.0:
	pushq	%rbp
	.cfi_def_cfa_offset 16
	.cfi_offset %rbp, -16
	movq	%rsp, %rbp
	.cfi_def_cfa_register %rbp
	movss	%xmm0, _stbi__l2h_scale(%rip)
	popq	%rbp
	retq
	.cfi_endproc
                                        ## -- End function
	.globl	_stbi_hdr_to_ldr_gamma  ## -- Begin function stbi_hdr_to_ldr_gamma
	.p2align	4, 0x90
_stbi_hdr_to_ldr_gamma:                 ## @stbi_hdr_to_ldr_gamma
	.cfi_startproc
## %bb.0:
	pushq	%rbp
	.cfi_def_cfa_offset 16
	.cfi_offset %rbp, -16
	movq	%rsp, %rbp
	.cfi_def_cfa_register %rbp
	popq	%rbp
	retq
	.cfi_endproc
                                        ## -- End function
	.globl	_stbi_hdr_to_ldr_scale  ## -- Begin function stbi_hdr_to_ldr_scale
	.p2align	4, 0x90
_stbi_hdr_to_ldr_scale:                 ## @stbi_hdr_to_ldr_scale
	.cfi_startproc
## %bb.0:
	pushq	%rbp
	.cfi_def_cfa_offset 16
	.cfi_offset %rbp, -16
	movq	%rsp, %rbp
	.cfi_def_cfa_register %rbp
	popq	%rbp
	retq
	.cfi_endproc
                                        ## -- End function
	.globl	_stbi_zlib_decode_malloc_guesssize ## -- Begin function stbi_zlib_decode_malloc_guesssize
	.p2align	4, 0x90
_stbi_zlib_decode_malloc_guesssize:     ## @stbi_zlib_decode_malloc_guesssize
	.cfi_startproc
## %bb.0:
	pushq	%rbp
	.cfi_def_cfa_offset 16
	.cfi_offset %rbp, -16
	movq	%rsp, %rbp
	.cfi_def_cfa_register %rbp
	pushq	%r15
	pushq	%r14
	pushq	%r12
	pushq	%rbx
	subq	$4112, %rsp             ## imm = 0x1010
	.cfi_offset %rbx, -48
	.cfi_offset %r12, -40
	.cfi_offset %r14, -32
	.cfi_offset %r15, -24
	movq	%rcx, %r14
	movl	%edx, %r15d
	movl	%esi, %r12d
	movq	%rdi, %rbx
	movq	___stack_chk_guard@GOTPCREL(%rip), %rax
	movq	(%rax), %rax
	movq	%rax, -40(%rbp)
	movslq	%edx, %rdi
	callq	_malloc
	testq	%rax, %rax
	je	LBB27_6
## %bb.1:
	movq	%rbx, -4136(%rbp)
	movslq	%r12d, %rcx
	addq	%rbx, %rcx
	movq	%rcx, -4128(%rbp)
	leaq	-4136(%rbp), %rdi
	movq	%rax, %rsi
	movl	%r15d, %edx
	movl	$1, %ecx
	movl	$1, %r8d
	callq	_stbi__do_zlib
	testl	%eax, %eax
	je	LBB27_5
## %bb.2:
	testq	%r14, %r14
	je	LBB27_3
## %bb.4:
	movl	-4112(%rbp), %ecx
	movq	-4104(%rbp), %rax
	subl	%eax, %ecx
	movl	%ecx, (%r14)
	jmp	LBB27_7
LBB27_5:
	movq	-4104(%rbp), %rdi
	callq	_free
LBB27_6:
	xorl	%eax, %eax
LBB27_7:
	movq	___stack_chk_guard@GOTPCREL(%rip), %rcx
	movq	(%rcx), %rcx
	cmpq	-40(%rbp), %rcx
	jne	LBB27_9
## %bb.8:
	addq	$4112, %rsp             ## imm = 0x1010
	popq	%rbx
	popq	%r12
	popq	%r14
	popq	%r15
	popq	%rbp
	retq
LBB27_3:
	movq	-4104(%rbp), %rax
	jmp	LBB27_7
LBB27_9:
	callq	___stack_chk_fail
	.cfi_endproc
                                        ## -- End function
	.section	__TEXT,__literal16,16byte_literals
	.p2align	4               ## -- Begin function stbi__do_zlib
LCPI28_0:
	.space	16
	.section	__TEXT,__text,regular,pure_instructions
	.p2align	4, 0x90
_stbi__do_zlib:                         ## @stbi__do_zlib
	.cfi_startproc
## %bb.0:
	pushq	%rbp
	.cfi_def_cfa_offset 16
	.cfi_offset %rbp, -16
	movq	%rsp, %rbp
	.cfi_def_cfa_register %rbp
	pushq	%r15
	pushq	%r14
	pushq	%r13
	pushq	%r12
	pushq	%rbx
	subq	$2568, %rsp             ## imm = 0xA08
	.cfi_offset %rbx, -56
	.cfi_offset %r12, -48
	.cfi_offset %r13, -40
	.cfi_offset %r14, -32
	.cfi_offset %r15, -24
	movq	%rsi, %r15
	movq	%rdi, %r14
	movq	___stack_chk_guard@GOTPCREL(%rip), %rax
	movq	(%rax), %rax
	movq	%rax, -48(%rbp)
	movq	%rsi, 32(%rdi)
	movq	%rsi, 24(%rdi)
	movslq	%edx, %rax
	addq	%rsi, %rax
	movq	%rax, 40(%rdi)
	movl	%ecx, 48(%rdi)
	testl	%r8d, %r8d
	je	LBB28_10
## %bb.1:
	movq	(%r14), %rsi
	movq	8(%r14), %rdx
	xorl	%ecx, %ecx
	cmpq	%rdx, %rsi
	jae	LBB28_3
## %bb.2:
	leaq	1(%rsi), %rdi
	movq	%rdi, (%r14)
	movzbl	(%rsi), %eax
	movq	%rdi, %rsi
	cmpq	%rdx, %rsi
	jb	LBB28_4
	jmp	LBB28_5
LBB28_3:
	xorl	%eax, %eax
	cmpq	%rdx, %rsi
	jae	LBB28_5
LBB28_4:
	leaq	1(%rsi), %rdi
	movq	%rdi, (%r14)
	movzbl	(%rsi), %ecx
	movq	%rdi, %rsi
LBB28_5:
	cmpq	%rdx, %rsi
	jae	LBB28_7
## %bb.6:
	movl	%eax, %edx
	shll	$8, %edx
	orl	%ecx, %edx
	imulq	$138547333, %rdx, %rsi  ## imm = 0x8421085
	shrq	$32, %rsi
	movl	%edx, %edi
	subl	%esi, %edi
	shrl	%edi
	addl	%esi, %edi
	shrl	$4, %edi
	movl	%edi, %esi
	shll	$5, %esi
	subl	%esi, %edi
	addl	%edx, %edi
	je	LBB28_8
LBB28_7:
	leaq	L_.str.79(%rip), %rcx
	jmp	LBB28_216
LBB28_8:
	testb	$32, %cl
	jne	LBB28_219
## %bb.9:
	andl	$15, %eax
	cmpl	$8, %eax
	jne	LBB28_221
LBB28_10:
	leaq	16(%r14), %r10
	movq	$0, 16(%r14)
	leaq	20(%r14), %r12
	leaq	52(%r14), %rax
	movq	%rax, -2600(%rbp)       ## 8-byte Spill
	leaq	2072(%r14), %rax
	movq	%rax, -2592(%rbp)       ## 8-byte Spill
	xorl	%edx, %edx
	leaq	_stbi__compute_huffman_codes.length_dezigzag(%rip), %r8
	xorl	%ecx, %ecx
	movq	%r10, -2568(%rbp)       ## 8-byte Spill
	testl	%ecx, %ecx
	jg	LBB28_20
LBB28_12:
	decl	%ecx
	movl	%ecx, %eax
	.p2align	4, 0x90
LBB28_13:                               ## =>This Inner Loop Header: Depth=1
	leal	1(%rax), %ecx
	movl	%edx, %esi
	shrl	%cl, %esi
	testl	%esi, %esi
	jne	LBB28_19
## %bb.14:                              ##   in Loop: Header=BB28_13 Depth=1
	movq	(%r14), %rsi
	cmpq	8(%r14), %rsi
	jae	LBB28_16
## %bb.15:                              ##   in Loop: Header=BB28_13 Depth=1
	leaq	1(%rsi), %rdi
	movq	%rdi, (%r14)
	movzbl	(%rsi), %esi
	jmp	LBB28_17
	.p2align	4, 0x90
LBB28_16:                               ##   in Loop: Header=BB28_13 Depth=1
	xorl	%esi, %esi
LBB28_17:                               ##   in Loop: Header=BB28_13 Depth=1
	movzbl	%sil, %esi
                                        ## kill: def $cl killed $cl killed $rcx
	shll	%cl, %esi
	orl	%esi, %edx
	movl	%edx, (%r12)
	leal	9(%rax), %ecx
	movl	%ecx, (%r10)
	addl	$8, %eax
	cmpl	$25, %ecx
	jl	LBB28_13
## %bb.18:
	movl	%edx, %ecx
	andl	$1, %ecx
	movl	%ecx, -2572(%rbp)       ## 4-byte Spill
	shrl	%edx
	movl	%edx, (%r12)
	movl	%eax, (%r10)
	jmp	LBB28_27
LBB28_19:
	movq	8(%r14), %rax
	movq	%rax, (%r14)
	jmp	LBB28_20
LBB28_11:
	movl	(%r10), %ecx
	movl	(%r12), %edx
	testl	%ecx, %ecx
	jle	LBB28_12
LBB28_20:
	movl	%edx, %eax
	andl	$1, %eax
	movl	%eax, -2572(%rbp)       ## 4-byte Spill
	shrl	%edx
	movl	%edx, (%r12)
	leal	-1(%rcx), %eax
	movl	%eax, (%r10)
	cmpl	$2, %ecx
	jg	LBB28_27
	.p2align	4, 0x90
LBB28_21:                               ## =>This Inner Loop Header: Depth=1
	movl	%edx, %esi
	movl	%eax, %ecx
	shrl	%cl, %esi
	testl	%esi, %esi
	jne	LBB28_26
## %bb.22:                              ##   in Loop: Header=BB28_21 Depth=1
	movq	(%r14), %rcx
	cmpq	8(%r14), %rcx
	jae	LBB28_24
## %bb.23:                              ##   in Loop: Header=BB28_21 Depth=1
	leaq	1(%rcx), %rsi
	movq	%rsi, (%r14)
	movzbl	(%rcx), %ecx
	jmp	LBB28_25
	.p2align	4, 0x90
LBB28_24:                               ##   in Loop: Header=BB28_21 Depth=1
	xorl	%ecx, %ecx
LBB28_25:                               ##   in Loop: Header=BB28_21 Depth=1
	movzbl	%cl, %esi
	movl	%eax, %ecx
	shll	%cl, %esi
	orl	%esi, %edx
	movl	%edx, (%r12)
	addl	$8, %eax
	movl	%eax, (%r10)
	cmpl	$25, %eax
	jl	LBB28_21
	jmp	LBB28_27
LBB28_26:
	movq	8(%r14), %rcx
	movq	%rcx, (%r14)
LBB28_27:
	movl	%edx, %ecx
	shrl	$2, %ecx
	movl	%ecx, (%r12)
	addl	$-2, %eax
	movl	%eax, (%r10)
	andl	$3, %edx
	je	LBB28_36
## %bb.28:
	xorl	%ebx, %ebx
	cmpl	$1, %edx
	je	LBB28_43
## %bb.29:
	cmpl	$3, %edx
	je	LBB28_217
## %bb.30:
	cmpl	$4, %eax
	jg	LBB28_46
	.p2align	4, 0x90
LBB28_31:                               ## =>This Inner Loop Header: Depth=1
	movq	%rcx, %rsi
	movl	%ecx, %edx
	movl	%eax, %ecx
	shrl	%cl, %edx
	testl	%edx, %edx
	jne	LBB28_45
## %bb.32:                              ##   in Loop: Header=BB28_31 Depth=1
	movq	(%r14), %rcx
	cmpq	8(%r14), %rcx
	jae	LBB28_34
## %bb.33:                              ##   in Loop: Header=BB28_31 Depth=1
	leaq	1(%rcx), %rdx
	movq	%rdx, (%r14)
	movzbl	(%rcx), %ecx
	jmp	LBB28_35
	.p2align	4, 0x90
LBB28_34:                               ##   in Loop: Header=BB28_31 Depth=1
	xorl	%ecx, %ecx
LBB28_35:                               ##   in Loop: Header=BB28_31 Depth=1
	movzbl	%cl, %edx
	movl	%eax, %ecx
	shll	%cl, %edx
	movq	%rsi, %rcx
	orl	%edx, %ecx
	movl	%ecx, (%r12)
	addl	$8, %eax
	movl	%eax, (%r10)
	cmpl	$25, %eax
	jl	LBB28_31
	jmp	LBB28_46
LBB28_36:
	movl	%eax, %edx
	andl	$7, %edx
	je	LBB28_176
## %bb.37:
	cmpl	%edx, %eax
	jge	LBB28_175
	.p2align	4, 0x90
LBB28_38:                               ## =>This Inner Loop Header: Depth=1
	movq	%rcx, %rdi
	movl	%ecx, %esi
	movl	%eax, %ecx
	shrl	%cl, %esi
	testl	%esi, %esi
	jne	LBB28_174
## %bb.39:                              ##   in Loop: Header=BB28_38 Depth=1
	movq	(%r14), %rcx
	cmpq	8(%r14), %rcx
	jae	LBB28_41
## %bb.40:                              ##   in Loop: Header=BB28_38 Depth=1
	leaq	1(%rcx), %rsi
	movq	%rsi, (%r14)
	movzbl	(%rcx), %ecx
	jmp	LBB28_42
	.p2align	4, 0x90
LBB28_41:                               ##   in Loop: Header=BB28_38 Depth=1
	xorl	%ecx, %ecx
LBB28_42:                               ##   in Loop: Header=BB28_38 Depth=1
	movzbl	%cl, %esi
	movl	%eax, %ecx
	shll	%cl, %esi
	movq	%rdi, %rcx
	orl	%esi, %ecx
	movl	%ecx, (%r12)
	addl	$8, %eax
	movl	%eax, (%r10)
	cmpl	$25, %eax
	jl	LBB28_38
	jmp	LBB28_175
LBB28_43:
	movq	-2600(%rbp), %rdi       ## 8-byte Reload
	leaq	_stbi__zdefault_length(%rip), %rsi
	movl	$288, %edx              ## imm = 0x120
	callq	_stbi__zbuild_huffman
	testl	%eax, %eax
	je	LBB28_217
## %bb.44:
	movq	-2592(%rbp), %rdi       ## 8-byte Reload
	leaq	_stbi__zdefault_distance(%rip), %rsi
	movl	$32, %edx
	callq	_stbi__zbuild_huffman
	testl	%eax, %eax
	jne	LBB28_112
	jmp	LBB28_217
LBB28_45:
	movq	8(%r14), %rcx
	movq	%rcx, (%r14)
	movq	%rsi, %rcx
LBB28_46:
	movq	%rcx, %rdx
	movl	%ecx, %ebx
	shrl	$5, %ebx
	movl	%ebx, (%r12)
	addl	$-5, %eax
	movl	%eax, (%r10)
	cmpl	$4, %eax
	jg	LBB28_53
	.p2align	4, 0x90
LBB28_47:                               ## =>This Inner Loop Header: Depth=1
	movl	%ebx, %esi
	movl	%eax, %ecx
	shrl	%cl, %esi
	testl	%esi, %esi
	jne	LBB28_52
## %bb.48:                              ##   in Loop: Header=BB28_47 Depth=1
	movq	(%r14), %rcx
	cmpq	8(%r14), %rcx
	jae	LBB28_50
## %bb.49:                              ##   in Loop: Header=BB28_47 Depth=1
	leaq	1(%rcx), %rsi
	movq	%rsi, (%r14)
	movzbl	(%rcx), %ecx
	jmp	LBB28_51
	.p2align	4, 0x90
LBB28_50:                               ##   in Loop: Header=BB28_47 Depth=1
	xorl	%ecx, %ecx
LBB28_51:                               ##   in Loop: Header=BB28_47 Depth=1
	movzbl	%cl, %esi
	movl	%eax, %ecx
	shll	%cl, %esi
	orl	%esi, %ebx
	movl	%ebx, (%r12)
	addl	$8, %eax
	movl	%eax, (%r10)
	cmpl	$25, %eax
	jl	LBB28_47
	jmp	LBB28_53
LBB28_52:
	movq	8(%r14), %rcx
	movq	%rcx, (%r14)
LBB28_53:
	andl	$31, %edx
	movl	%ebx, %r15d
	andl	$31, %r15d
	shrl	$5, %ebx
	movl	%ebx, (%r12)
	addl	$-5, %eax
	movl	%eax, (%r10)
	cmpl	$3, %eax
	jg	LBB28_60
	.p2align	4, 0x90
LBB28_54:                               ## =>This Inner Loop Header: Depth=1
	movl	%ebx, %esi
	movl	%eax, %ecx
	shrl	%cl, %esi
	testl	%esi, %esi
	jne	LBB28_59
## %bb.55:                              ##   in Loop: Header=BB28_54 Depth=1
	movq	(%r14), %rcx
	cmpq	8(%r14), %rcx
	jae	LBB28_57
## %bb.56:                              ##   in Loop: Header=BB28_54 Depth=1
	leaq	1(%rcx), %rsi
	movq	%rsi, (%r14)
	movzbl	(%rcx), %ecx
	jmp	LBB28_58
	.p2align	4, 0x90
LBB28_57:                               ##   in Loop: Header=BB28_54 Depth=1
	xorl	%ecx, %ecx
LBB28_58:                               ##   in Loop: Header=BB28_54 Depth=1
	movzbl	%cl, %esi
	movl	%eax, %ecx
	shll	%cl, %esi
	orl	%esi, %ebx
	movl	%ebx, (%r12)
	addl	$8, %eax
	movl	%eax, (%r10)
	cmpl	$25, %eax
	jl	LBB28_54
	jmp	LBB28_60
LBB28_59:
	movq	8(%r14), %rcx
	movq	%rcx, (%r14)
LBB28_60:
	addl	$257, %edx              ## imm = 0x101
	movq	%rdx, -2608(%rbp)       ## 8-byte Spill
	incl	%r15d
	movl	%ebx, %esi
	andl	$15, %esi
	shrl	$4, %ebx
	movl	%ebx, (%r12)
	addl	$-4, %eax
	movl	%eax, (%r10)
	addl	$4, %esi
	xorps	%xmm0, %xmm0
	movaps	%xmm0, -2560(%rbp)
	movl	$0, -2545(%rbp)
	xorl	%edi, %edi
	.p2align	4, 0x90
LBB28_61:                               ## =>This Loop Header: Depth=1
                                        ##     Child Loop BB28_62 Depth 2
	cmpl	$2, %eax
	jg	LBB28_68
	.p2align	4, 0x90
LBB28_62:                               ##   Parent Loop BB28_61 Depth=1
                                        ## =>  This Inner Loop Header: Depth=2
	movl	%ebx, %edx
	movl	%eax, %ecx
	shrl	%cl, %edx
	testl	%edx, %edx
	jne	LBB28_67
## %bb.63:                              ##   in Loop: Header=BB28_62 Depth=2
	movq	(%r14), %rcx
	cmpq	8(%r14), %rcx
	jae	LBB28_65
## %bb.64:                              ##   in Loop: Header=BB28_62 Depth=2
	leaq	1(%rcx), %rdx
	movq	%rdx, (%r14)
	movzbl	(%rcx), %ecx
	jmp	LBB28_66
	.p2align	4, 0x90
LBB28_65:                               ##   in Loop: Header=BB28_62 Depth=2
	xorl	%ecx, %ecx
LBB28_66:                               ##   in Loop: Header=BB28_62 Depth=2
	movzbl	%cl, %edx
	movl	%eax, %ecx
	shll	%cl, %edx
	orl	%edx, %ebx
	movl	%ebx, (%r12)
	addl	$8, %eax
	movl	%eax, (%r10)
	cmpl	$25, %eax
	jl	LBB28_62
	jmp	LBB28_68
	.p2align	4, 0x90
LBB28_67:                               ##   in Loop: Header=BB28_61 Depth=1
	movq	8(%r14), %rcx
	movq	%rcx, (%r14)
LBB28_68:                               ##   in Loop: Header=BB28_61 Depth=1
	movl	%ebx, %ecx
	shrl	$3, %ecx
	movl	%ecx, (%r12)
	addl	$-3, %eax
	movl	%eax, (%r10)
	andb	$7, %bl
	movzbl	(%rdi,%r8), %edx
	movb	%bl, -2560(%rbp,%rdx)
	incq	%rdi
	movl	%ecx, %ebx
	cmpq	%rsi, %rdi
	jne	LBB28_61
## %bb.69:
	leaq	-2072(%rbp), %rdi
	leaq	-2560(%rbp), %rsi
	movl	$19, %edx
	callq	_stbi__zbuild_huffman
	xorl	%ebx, %ebx
	movl	$0, %ecx
	testl	%eax, %eax
	je	LBB28_111
## %bb.70:
	movq	-2608(%rbp), %rax       ## 8-byte Reload
	movq	%r15, %rbx
	leal	(%r15,%rax), %eax
	movl	%eax, -2584(%rbp)       ## 4-byte Spill
	xorl	%r13d, %r13d
	.p2align	4, 0x90
LBB28_71:                               ## =>This Loop Header: Depth=1
                                        ##     Child Loop BB28_78 Depth 2
                                        ##     Child Loop BB28_90 Depth 2
                                        ##     Child Loop BB28_84 Depth 2
	movq	%r14, %rdi
	leaq	-2072(%rbp), %rsi
	callq	_stbi__zhuffman_decode
	cmpl	$19, %eax
	jae	LBB28_108
## %bb.72:                              ##   in Loop: Header=BB28_71 Depth=1
	cmpl	$15, %eax
	jg	LBB28_74
## %bb.73:                              ##   in Loop: Header=BB28_71 Depth=1
	movslq	%r13d, %rcx
	incl	%r13d
	movb	%al, -2528(%rbp,%rcx)
	cmpl	%r13d, -2584(%rbp)      ## 4-byte Folded Reload
	jg	LBB28_71
	jmp	LBB28_105
	.p2align	4, 0x90
LBB28_74:                               ##   in Loop: Header=BB28_71 Depth=1
	cmpl	$18, %eax
	je	LBB28_83
## %bb.75:                              ##   in Loop: Header=BB28_71 Depth=1
	cmpl	$17, %eax
	movq	-2568(%rbp), %rdi       ## 8-byte Reload
	je	LBB28_89
## %bb.76:                              ##   in Loop: Header=BB28_71 Depth=1
	cmpl	$16, %eax
	jne	LBB28_108
## %bb.77:                              ##   in Loop: Header=BB28_71 Depth=1
	movl	(%rdi), %ecx
	movl	(%r12), %r15d
	cmpl	$1, %ecx
	jg	LBB28_96
	.p2align	4, 0x90
LBB28_78:                               ##   Parent Loop BB28_71 Depth=1
                                        ## =>  This Inner Loop Header: Depth=2
	movl	%r15d, %eax
	shrl	%cl, %eax
	testl	%eax, %eax
	jne	LBB28_95
## %bb.79:                              ##   in Loop: Header=BB28_78 Depth=2
	movq	(%r14), %rax
	cmpq	8(%r14), %rax
	jae	LBB28_81
## %bb.80:                              ##   in Loop: Header=BB28_78 Depth=2
	leaq	1(%rax), %rdx
	movq	%rdx, (%r14)
	movzbl	(%rax), %eax
	jmp	LBB28_82
	.p2align	4, 0x90
LBB28_81:                               ##   in Loop: Header=BB28_78 Depth=2
	xorl	%eax, %eax
LBB28_82:                               ##   in Loop: Header=BB28_78 Depth=2
	movzbl	%al, %eax
	shll	%cl, %eax
	orl	%eax, %r15d
	movl	%r15d, (%r12)
	addl	$8, %ecx
	movl	%ecx, (%rdi)
	cmpl	$25, %ecx
	jl	LBB28_78
	jmp	LBB28_96
LBB28_83:                               ##   in Loop: Header=BB28_71 Depth=1
	movq	-2568(%rbp), %rdi       ## 8-byte Reload
	movl	(%rdi), %ecx
	movl	(%r12), %eax
	cmpl	$6, %ecx
	jg	LBB28_99
	.p2align	4, 0x90
LBB28_84:                               ##   Parent Loop BB28_71 Depth=1
                                        ## =>  This Inner Loop Header: Depth=2
	movl	%eax, %edx
	shrl	%cl, %edx
	testl	%edx, %edx
	jne	LBB28_98
## %bb.85:                              ##   in Loop: Header=BB28_84 Depth=2
	movq	(%r14), %rdx
	cmpq	8(%r14), %rdx
	jae	LBB28_87
## %bb.86:                              ##   in Loop: Header=BB28_84 Depth=2
	leaq	1(%rdx), %rsi
	movq	%rsi, (%r14)
	movzbl	(%rdx), %edx
	jmp	LBB28_88
	.p2align	4, 0x90
LBB28_87:                               ##   in Loop: Header=BB28_84 Depth=2
	xorl	%edx, %edx
LBB28_88:                               ##   in Loop: Header=BB28_84 Depth=2
	movzbl	%dl, %edx
	shll	%cl, %edx
	orl	%edx, %eax
	movl	%eax, (%r12)
	addl	$8, %ecx
	movl	%ecx, (%rdi)
	cmpl	$25, %ecx
	jl	LBB28_84
	jmp	LBB28_99
LBB28_89:                               ##   in Loop: Header=BB28_71 Depth=1
	movl	(%rdi), %ecx
	movl	(%r12), %eax
	cmpl	$2, %ecx
	jg	LBB28_101
	.p2align	4, 0x90
LBB28_90:                               ##   Parent Loop BB28_71 Depth=1
                                        ## =>  This Inner Loop Header: Depth=2
	movl	%eax, %edx
	shrl	%cl, %edx
	testl	%edx, %edx
	jne	LBB28_100
## %bb.91:                              ##   in Loop: Header=BB28_90 Depth=2
	movq	(%r14), %rdx
	cmpq	8(%r14), %rdx
	jae	LBB28_93
## %bb.92:                              ##   in Loop: Header=BB28_90 Depth=2
	leaq	1(%rdx), %rsi
	movq	%rsi, (%r14)
	movzbl	(%rdx), %edx
	jmp	LBB28_94
	.p2align	4, 0x90
LBB28_93:                               ##   in Loop: Header=BB28_90 Depth=2
	xorl	%edx, %edx
LBB28_94:                               ##   in Loop: Header=BB28_90 Depth=2
	movzbl	%dl, %edx
	shll	%cl, %edx
	orl	%edx, %eax
	movl	%eax, (%r12)
	addl	$8, %ecx
	movl	%ecx, (%rdi)
	cmpl	$25, %ecx
	jl	LBB28_90
	jmp	LBB28_101
LBB28_95:                               ##   in Loop: Header=BB28_71 Depth=1
	movq	8(%r14), %rax
	movq	%rax, (%r14)
LBB28_96:                               ##   in Loop: Header=BB28_71 Depth=1
	movl	%r15d, %eax
	shrl	$2, %eax
	movl	%eax, (%r12)
	addl	$-2, %ecx
	movl	%ecx, (%rdi)
	testl	%r13d, %r13d
	je	LBB28_108
## %bb.97:                              ##   in Loop: Header=BB28_71 Depth=1
	andl	$3, %r15d
	addl	$3, %r15d
	movslq	%r13d, %rax
	movb	-2529(%rbp,%rax), %al
	jmp	LBB28_103
LBB28_98:                               ##   in Loop: Header=BB28_71 Depth=1
	movq	8(%r14), %rdx
	movq	%rdx, (%r14)
LBB28_99:                               ##   in Loop: Header=BB28_71 Depth=1
	movl	%eax, %r15d
	andl	$127, %r15d
	shrl	$7, %eax
	movl	%eax, (%r12)
	addl	$-7, %ecx
	movl	%ecx, (%rdi)
	addl	$11, %r15d
	jmp	LBB28_102
LBB28_100:                              ##   in Loop: Header=BB28_71 Depth=1
	movq	8(%r14), %rdx
	movq	%rdx, (%r14)
LBB28_101:                              ##   in Loop: Header=BB28_71 Depth=1
	movl	%eax, %r15d
	andl	$7, %r15d
	shrl	$3, %eax
	movl	%eax, (%r12)
	addl	$-3, %ecx
	movl	%ecx, (%rdi)
	addl	$3, %r15d
LBB28_102:                              ##   in Loop: Header=BB28_71 Depth=1
	xorl	%eax, %eax
LBB28_103:                              ##   in Loop: Header=BB28_71 Depth=1
	movl	-2584(%rbp), %ecx       ## 4-byte Reload
	subl	%r13d, %ecx
	cmpl	%r15d, %ecx
	jl	LBB28_108
## %bb.104:                             ##   in Loop: Header=BB28_71 Depth=1
	movslq	%r13d, %rcx
	leaq	-2528(%rbp,%rcx), %rdi
	movl	%r15d, %edx
	movzbl	%al, %esi
	callq	_memset
	addl	%r15d, %r13d
	cmpl	%r13d, -2584(%rbp)      ## 4-byte Folded Reload
	jg	LBB28_71
LBB28_105:
	jne	LBB28_108
## %bb.106:
	movq	-2600(%rbp), %rdi       ## 8-byte Reload
	leaq	-2528(%rbp), %rsi
	movq	-2608(%rbp), %r15       ## 8-byte Reload
	movl	%r15d, %edx
	callq	_stbi__zbuild_huffman
	testl	%eax, %eax
	je	LBB28_109
## %bb.107:
	movl	%r15d, %eax
	leaq	-2528(%rbp,%rax), %rsi
	movq	-2592(%rbp), %rdi       ## 8-byte Reload
	movl	%ebx, %edx
	callq	_stbi__zbuild_huffman
	xorl	%ecx, %ecx
	testl	%eax, %eax
	setne	%cl
	jmp	LBB28_110
LBB28_108:
	movq	_stbi__g_failure_reason@TLVP(%rip), %rdi
	callq	*(%rdi)
	leaq	L_.str.86(%rip), %rcx
	movq	%rcx, (%rax)
LBB28_109:
	xorl	%ecx, %ecx
LBB28_110:
	xorl	%ebx, %ebx
LBB28_111:
	testl	%ecx, %ecx
	je	LBB28_217
LBB28_112:
	movq	24(%r14), %r15
	jmp	LBB28_114
	.p2align	4, 0x90
LBB28_113:                              ##   in Loop: Header=BB28_114 Depth=1
	movb	%r13b, (%r15)
	incq	%r15
LBB28_114:                              ## =>This Loop Header: Depth=1
                                        ##     Child Loop BB28_125 Depth 2
                                        ##     Child Loop BB28_137 Depth 2
                                        ##     Child Loop BB28_150 Depth 2
                                        ##     Child Loop BB28_164 Depth 2
                                        ##     Child Loop BB28_168 Depth 2
                                        ##     Child Loop BB28_172 Depth 2
                                        ##     Child Loop BB28_121 Depth 2
	movq	%r14, %rdi
	movq	-2600(%rbp), %rsi       ## 8-byte Reload
	callq	_stbi__zhuffman_decode
	movl	%eax, %r13d
	cmpl	$255, %eax
	jg	LBB28_122
## %bb.115:                             ##   in Loop: Header=BB28_114 Depth=1
	testl	%r13d, %r13d
	js	LBB28_220
## %bb.116:                             ##   in Loop: Header=BB28_114 Depth=1
	movq	40(%r14), %rax
	cmpq	%rax, %r15
	jb	LBB28_113
## %bb.117:                             ##   in Loop: Header=BB28_114 Depth=1
	movq	%r15, 24(%r14)
	cmpl	$0, 48(%r14)
	je	LBB28_228
## %bb.118:                             ##   in Loop: Header=BB28_114 Depth=1
	movq	32(%r14), %rdi
	subq	%rdi, %r15
	cmpl	$-1, %r15d
	je	LBB28_215
## %bb.119:                             ##   in Loop: Header=BB28_114 Depth=1
	subl	%edi, %eax
	leal	1(%r15), %ecx
	cmpl	%eax, %ecx
	jbe	LBB28_130
	.p2align	4, 0x90
LBB28_121:                              ##   Parent Loop BB28_114 Depth=1
                                        ## =>  This Inner Loop Header: Depth=2
	testl	%eax, %eax
	js	LBB28_215
## %bb.120:                             ##   in Loop: Header=BB28_121 Depth=2
	addl	%eax, %eax
	cmpl	%eax, %ecx
	ja	LBB28_121
LBB28_130:                              ##   in Loop: Header=BB28_114 Depth=1
	movq	%r15, %rbx
	movl	%eax, %r15d
	movq	%r15, %rsi
	callq	_realloc
	testq	%rax, %rax
	je	LBB28_215
## %bb.131:                             ##   in Loop: Header=BB28_114 Depth=1
	movq	%rax, 32(%r14)
	movl	%ebx, %ebx
	addq	%rax, %rbx
	movq	%rbx, 24(%r14)
	addq	%rax, %r15
	movq	%r15, 40(%r14)
	movq	%rbx, %r15
	jmp	LBB28_113
	.p2align	4, 0x90
LBB28_122:                              ##   in Loop: Header=BB28_114 Depth=1
	cmpl	$256, %r13d             ## imm = 0x100
	movq	-2568(%rbp), %r10       ## 8-byte Reload
	je	LBB28_191
## %bb.123:                             ##   in Loop: Header=BB28_114 Depth=1
	movslq	%r13d, %rax
	leaq	_stbi__zlength_base(%rip), %rcx
	movl	-1028(%rcx,%rax,4), %r13d
	leaq	-265(%rax), %rcx
	cmpq	$19, %rcx
	ja	LBB28_134
## %bb.124:                             ##   in Loop: Header=BB28_114 Depth=1
	addq	$-257, %rax             ## imm = 0xFEFF
	leaq	_stbi__zlength_extra(%rip), %rcx
	movl	(%rcx,%rax,4), %eax
	movl	(%r10), %edx
	movl	(%r12), %esi
	cmpl	%eax, %edx
	jge	LBB28_133
	.p2align	4, 0x90
LBB28_125:                              ##   Parent Loop BB28_114 Depth=1
                                        ## =>  This Inner Loop Header: Depth=2
	movl	%esi, %edi
	movl	%edx, %ecx
	shrl	%cl, %edi
	testl	%edi, %edi
	jne	LBB28_132
## %bb.126:                             ##   in Loop: Header=BB28_125 Depth=2
	movq	(%r14), %rcx
	cmpq	8(%r14), %rcx
	jae	LBB28_128
## %bb.127:                             ##   in Loop: Header=BB28_125 Depth=2
	leaq	1(%rcx), %rdi
	movq	%rdi, (%r14)
	movzbl	(%rcx), %ecx
	jmp	LBB28_129
	.p2align	4, 0x90
LBB28_128:                              ##   in Loop: Header=BB28_125 Depth=2
	xorl	%ecx, %ecx
LBB28_129:                              ##   in Loop: Header=BB28_125 Depth=2
	movzbl	%cl, %edi
	movl	%edx, %ecx
	shll	%cl, %edi
	orl	%edi, %esi
	movl	%esi, (%r12)
	addl	$8, %edx
	movl	%edx, (%r10)
	cmpl	$25, %edx
	jl	LBB28_125
	jmp	LBB28_133
LBB28_132:                              ##   in Loop: Header=BB28_114 Depth=1
	movq	8(%r14), %rcx
	movq	%rcx, (%r14)
LBB28_133:                              ##   in Loop: Header=BB28_114 Depth=1
	movl	$-1, %edi
	movl	%eax, %ecx
	shll	%cl, %edi
	notl	%edi
	andl	%esi, %edi
	shrl	%cl, %esi
	movl	%esi, (%r12)
	subl	%eax, %edx
	movl	%edx, (%r10)
	addl	%r13d, %edi
	movl	%edi, %r13d
LBB28_134:                              ##   in Loop: Header=BB28_114 Depth=1
	movq	%r14, %rdi
	movq	-2592(%rbp), %rsi       ## 8-byte Reload
	callq	_stbi__zhuffman_decode
	testl	%eax, %eax
	js	LBB28_220
## %bb.135:                             ##   in Loop: Header=BB28_114 Depth=1
	cltq
	leaq	_stbi__zdist_base(%rip), %rcx
	movl	(%rcx,%rax,4), %esi
	leaq	-4(%rax), %rcx
	cmpq	$25, %rcx
	ja	LBB28_144
## %bb.136:                             ##   in Loop: Header=BB28_114 Depth=1
	leaq	_stbi__zdist_extra(%rip), %rcx
	movl	(%rcx,%rax,4), %r8d
	movq	-2568(%rbp), %rax       ## 8-byte Reload
	movl	(%rax), %edx
	movl	(%r12), %ebx
	cmpl	%r8d, %edx
	jge	LBB28_143
	.p2align	4, 0x90
LBB28_137:                              ##   Parent Loop BB28_114 Depth=1
                                        ## =>  This Inner Loop Header: Depth=2
	movl	%ebx, %edi
	movl	%edx, %ecx
	shrl	%cl, %edi
	testl	%edi, %edi
	jne	LBB28_142
## %bb.138:                             ##   in Loop: Header=BB28_137 Depth=2
	movq	(%r14), %rcx
	cmpq	8(%r14), %rcx
	jae	LBB28_140
## %bb.139:                             ##   in Loop: Header=BB28_137 Depth=2
	leaq	1(%rcx), %rdi
	movq	%rdi, (%r14)
	movzbl	(%rcx), %ecx
	jmp	LBB28_141
	.p2align	4, 0x90
LBB28_140:                              ##   in Loop: Header=BB28_137 Depth=2
	xorl	%ecx, %ecx
LBB28_141:                              ##   in Loop: Header=BB28_137 Depth=2
	movzbl	%cl, %edi
	movl	%edx, %ecx
	shll	%cl, %edi
	orl	%edi, %ebx
	movl	%ebx, (%r12)
	addl	$8, %edx
	movl	%edx, (%rax)
	cmpl	$25, %edx
	jl	LBB28_137
	jmp	LBB28_143
LBB28_142:                              ##   in Loop: Header=BB28_114 Depth=1
	movq	8(%r14), %rcx
	movq	%rcx, (%r14)
LBB28_143:                              ##   in Loop: Header=BB28_114 Depth=1
	movl	$-1, %edi
	movl	%r8d, %ecx
	shll	%cl, %edi
	notl	%edi
	andl	%ebx, %edi
	shrl	%cl, %ebx
	movl	%ebx, (%r12)
	subl	%r8d, %edx
	movl	%edx, (%rax)
	addl	%edi, %esi
LBB28_144:                              ##   in Loop: Header=BB28_114 Depth=1
	movq	32(%r14), %rdi
	movq	%r15, %rdx
	subq	%rdi, %r15
	movslq	%esi, %rbx
	cmpq	%rbx, %r15
	jl	LBB28_223
## %bb.145:                             ##   in Loop: Header=BB28_114 Depth=1
	movslq	%r13d, %rcx
	addq	%rdx, %rcx
	movq	40(%r14), %rax
	cmpq	%rax, %rcx
	jbe	LBB28_151
## %bb.146:                             ##   in Loop: Header=BB28_114 Depth=1
	movq	%rdx, 24(%r14)
	cmpl	$0, 48(%r14)
	je	LBB28_228
## %bb.147:                             ##   in Loop: Header=BB28_114 Depth=1
	movl	%r15d, %ecx
	notl	%ecx
	cmpl	%ecx, %r13d
	ja	LBB28_215
## %bb.148:                             ##   in Loop: Header=BB28_114 Depth=1
	subl	%edi, %eax
	leal	(%r13,%r15), %ecx
	cmpl	%eax, %ecx
	jbe	LBB28_152
	.p2align	4, 0x90
LBB28_150:                              ##   Parent Loop BB28_114 Depth=1
                                        ## =>  This Inner Loop Header: Depth=2
	testl	%eax, %eax
	js	LBB28_215
## %bb.149:                             ##   in Loop: Header=BB28_150 Depth=2
	addl	%eax, %eax
	cmpl	%eax, %ecx
	ja	LBB28_150
LBB28_152:                              ##   in Loop: Header=BB28_114 Depth=1
	movq	%rbx, -2584(%rbp)       ## 8-byte Spill
	movq	%r13, %rbx
	movl	%eax, %r13d
	movq	%r13, %rsi
	callq	_realloc
	testq	%rax, %rax
	je	LBB28_215
## %bb.153:                             ##   in Loop: Header=BB28_114 Depth=1
	movq	%rax, 32(%r14)
	movl	%r15d, %r15d
	addq	%rax, %r15
	movq	%r15, 24(%r14)
	addq	%rax, %r13
	movq	%r13, 40(%r14)
	movq	%rbx, %r13
	movq	-2584(%rbp), %rbx       ## 8-byte Reload
	jmp	LBB28_154
	.p2align	4, 0x90
LBB28_151:                              ##   in Loop: Header=BB28_114 Depth=1
	movq	%rdx, %r15
LBB28_154:                              ##   in Loop: Header=BB28_114 Depth=1
	movq	%r15, %rax
	subq	%rbx, %rax
	cmpl	$1, %ebx
	jne	LBB28_157
## %bb.155:                             ##   in Loop: Header=BB28_114 Depth=1
	testl	%r13d, %r13d
	je	LBB28_114
## %bb.156:                             ##   in Loop: Header=BB28_114 Depth=1
	movl	%r13d, %edx
	movzbl	(%rax), %esi
	movq	%r15, %rdi
	callq	_memset
	decl	%r13d
	leaq	1(%r15,%r13), %r15
	jmp	LBB28_114
LBB28_157:                              ##   in Loop: Header=BB28_114 Depth=1
	testl	%r13d, %r13d
	je	LBB28_114
## %bb.158:                             ##   in Loop: Header=BB28_114 Depth=1
	leal	-1(%r13), %ecx
	leaq	1(%rcx), %rdx
	cmpq	$32, %rdx
	jb	LBB28_159
## %bb.160:                             ##   in Loop: Header=BB28_114 Depth=1
	movq	%rcx, %rsi
	subq	%rbx, %rsi
	leaq	1(%r15,%rsi), %rsi
	cmpq	%rsi, %r15
	jae	LBB28_163
## %bb.161:                             ##   in Loop: Header=BB28_114 Depth=1
	leaq	1(%r15,%rcx), %rcx
	cmpq	%rcx, %rax
	jae	LBB28_163
LBB28_159:                              ##   in Loop: Header=BB28_114 Depth=1
	movq	%r15, %rcx
LBB28_166:                              ##   in Loop: Header=BB28_114 Depth=1
	leal	-1(%r13), %edx
	testb	$7, %r13b
	je	LBB28_170
## %bb.167:                             ##   in Loop: Header=BB28_114 Depth=1
	movl	%r13d, %edi
	andl	$7, %edi
	xorl	%esi, %esi
	.p2align	4, 0x90
LBB28_168:                              ##   Parent Loop BB28_114 Depth=1
                                        ## =>  This Inner Loop Header: Depth=2
	movzbl	(%rax,%rsi), %ebx
	movb	%bl, (%rcx,%rsi)
	incq	%rsi
	cmpl	%esi, %edi
	jne	LBB28_168
## %bb.169:                             ##   in Loop: Header=BB28_114 Depth=1
	addq	%rsi, %rcx
	addq	%rsi, %rax
	subl	%esi, %r13d
	movq	%rcx, %r15
	cmpl	$7, %edx
	jb	LBB28_114
	jmp	LBB28_171
LBB28_170:                              ##   in Loop: Header=BB28_114 Depth=1
                                        ## implicit-def: $r15
	cmpl	$7, %edx
	jb	LBB28_114
LBB28_171:                              ##   in Loop: Header=BB28_114 Depth=1
	movl	%r13d, %edx
	xorl	%esi, %esi
	.p2align	4, 0x90
LBB28_172:                              ##   Parent Loop BB28_114 Depth=1
                                        ## =>  This Inner Loop Header: Depth=2
	movzbl	(%rax,%rsi), %ebx
	movb	%bl, (%rcx,%rsi)
	movzbl	1(%rax,%rsi), %ebx
	movb	%bl, 1(%rcx,%rsi)
	movzbl	2(%rax,%rsi), %ebx
	movb	%bl, 2(%rcx,%rsi)
	movzbl	3(%rax,%rsi), %ebx
	movb	%bl, 3(%rcx,%rsi)
	movzbl	4(%rax,%rsi), %ebx
	movb	%bl, 4(%rcx,%rsi)
	movzbl	5(%rax,%rsi), %ebx
	movb	%bl, 5(%rcx,%rsi)
	movzbl	6(%rax,%rsi), %ebx
	movb	%bl, 6(%rcx,%rsi)
	movzbl	7(%rax,%rsi), %ebx
	movb	%bl, 7(%rcx,%rsi)
	addq	$8, %rsi
	cmpl	%esi, %edx
	jne	LBB28_172
## %bb.173:                             ##   in Loop: Header=BB28_114 Depth=1
	addq	%rsi, %rcx
	movq	%rcx, %r15
	jmp	LBB28_114
LBB28_163:                              ##   in Loop: Header=BB28_114 Depth=1
	negq	%rbx
	movl	%r13d, %r8d
	andl	$31, %r8d
	subq	%r8, %rdx
	leaq	(%r15,%rdx), %rcx
	addq	%rdx, %rax
	subl	%edx, %r13d
	leaq	16(%r15,%rbx), %rdi
	xorl	%esi, %esi
	.p2align	4, 0x90
LBB28_164:                              ##   Parent Loop BB28_114 Depth=1
                                        ## =>  This Inner Loop Header: Depth=2
	movups	-16(%rdi,%rsi), %xmm0
	movups	(%rdi,%rsi), %xmm1
	movups	%xmm0, (%r15,%rsi)
	movups	%xmm1, 16(%r15,%rsi)
	addq	$32, %rsi
	cmpq	%rsi, %rdx
	jne	LBB28_164
## %bb.165:                             ##   in Loop: Header=BB28_114 Depth=1
	movq	%rcx, %r15
	testl	%r8d, %r8d
	je	LBB28_114
	jmp	LBB28_166
LBB28_174:
	movq	8(%r14), %rcx
	movq	%rcx, (%r14)
	movq	%rdi, %rcx
LBB28_175:
	movq	%rcx, %rsi
	movl	%edx, %ecx
	shrl	%cl, %esi
	movq	%rsi, %rcx
	movl	%ecx, (%r12)
	subl	%edx, %eax
	movl	%eax, (%r10)
LBB28_176:
	testl	%eax, %eax
	jle	LBB28_179
## %bb.177:
	leal	-1(%rax), %r8d
	movl	%r8d, %r9d
	shrl	$3, %r9d
	leaq	1(%r9), %rdi
	movl	%edi, %esi
	andl	$3, %esi
	cmpl	$3, %r9d
	jae	LBB28_180
## %bb.178:
	xorl	%edx, %edx
	testq	%rsi, %rsi
	jne	LBB28_183
LBB28_185:
	xorl	%ecx, %ecx
	jmp	LBB28_186
LBB28_179:
	xorl	%r9d, %r9d
	testl	%eax, %eax
	js	LBB28_225
LBB28_187:
	cmpl	$3, %r9d
	ja	LBB28_202
## %bb.188:
	movl	%r9d, %eax
	movq	(%r14), %rsi
	movq	8(%r14), %rdx
	testb	$1, %al
	je	LBB28_194
## %bb.189:
	cmpq	%rdx, %rsi
	jae	LBB28_192
## %bb.190:
	leaq	1(%rsi), %rcx
	movq	%rcx, (%r14)
	movb	(%rsi), %dil
	movq	%rcx, %rsi
	jmp	LBB28_193
LBB28_180:
	subq	%rsi, %rdi
	xorl	%edx, %edx
	.p2align	4, 0x90
LBB28_181:                              ## =>This Inner Loop Header: Depth=1
	movb	%cl, -2072(%rbp,%rdx)
	movb	%ch, -2071(%rbp,%rdx)
	movq	%rcx, %rbx
	shrl	$16, %ecx
	movb	%cl, -2070(%rbp,%rdx)
	shrl	$24, %ebx
	movb	%bl, -2069(%rbp,%rdx)
	addq	$4, %rdx
	xorl	%ecx, %ecx
	cmpq	%rdx, %rdi
	jne	LBB28_181
## %bb.182:
	testq	%rsi, %rsi
	je	LBB28_185
LBB28_183:
	leaq	-2072(%rbp,%rdx), %rdx
	xorl	%edi, %edi
	.p2align	4, 0x90
LBB28_184:                              ## =>This Inner Loop Header: Depth=1
	movb	%cl, (%rdx,%rdi)
	shrl	$8, %ecx
	incq	%rdi
	cmpq	%rdi, %rsi
	jne	LBB28_184
LBB28_186:
	incl	%r9d
	andl	$-8, %r8d
	addl	$-8, %eax
	subl	%r8d, %eax
	movl	%ecx, (%r12)
	movl	%eax, (%r10)
	testl	%eax, %eax
	jns	LBB28_187
	jmp	LBB28_225
LBB28_191:
	movq	%r15, 24(%r14)
	jmp	LBB28_213
LBB28_192:
	xorl	%edi, %edi
LBB28_193:
	movb	%dil, -2072(%rbp,%rax)
	incq	%rax
LBB28_194:
	cmpl	$3, %r9d
	je	LBB28_202
	.p2align	4, 0x90
LBB28_195:                              ## =>This Inner Loop Header: Depth=1
	cmpq	%rdx, %rsi
	jae	LBB28_197
## %bb.196:                             ##   in Loop: Header=BB28_195 Depth=1
	leaq	1(%rsi), %rdi
	movq	%rdi, (%r14)
	movzbl	(%rsi), %ecx
	movq	%rdi, %rsi
	jmp	LBB28_198
	.p2align	4, 0x90
LBB28_197:                              ##   in Loop: Header=BB28_195 Depth=1
	xorl	%ecx, %ecx
LBB28_198:                              ##   in Loop: Header=BB28_195 Depth=1
	movb	%cl, -2072(%rbp,%rax)
	cmpq	%rdx, %rsi
	jae	LBB28_200
## %bb.199:                             ##   in Loop: Header=BB28_195 Depth=1
	leaq	1(%rsi), %rdi
	movq	%rdi, (%r14)
	movzbl	(%rsi), %ecx
	movq	%rdi, %rsi
	jmp	LBB28_201
	.p2align	4, 0x90
LBB28_200:                              ##   in Loop: Header=BB28_195 Depth=1
	xorl	%ecx, %ecx
LBB28_201:                              ##   in Loop: Header=BB28_195 Depth=1
	movb	%cl, -2071(%rbp,%rax)
	addq	$2, %rax
	cmpq	$4, %rax
	jne	LBB28_195
LBB28_202:
	movzbl	-2071(%rbp), %eax
	shlq	$8, %rax
	movzbl	-2072(%rbp), %r13d
	orq	%rax, %r13
	movzbl	-2069(%rbp), %eax
	shll	$8, %eax
	movzbl	-2070(%rbp), %ecx
	orl	%eax, %ecx
	movl	%r13d, %eax
	xorl	$65535, %eax            ## imm = 0xFFFF
	cmpl	%eax, %ecx
	jne	LBB28_225
## %bb.203:
	movq	(%r14), %rsi
	leaq	(%rsi,%r13), %rax
	cmpq	8(%r14), %rax
	ja	LBB28_226
## %bb.204:
	leaq	(%r15,%r13), %rcx
	movq	40(%r14), %rax
	cmpq	%rax, %rcx
	jbe	LBB28_212
## %bb.205:
	cmpl	$0, 48(%r14)
	je	LBB28_228
## %bb.206:
	movq	32(%r14), %rdi
	subq	%rdi, %r15
	movl	%r15d, %ecx
	notl	%ecx
	cmpl	%ecx, %r13d
	ja	LBB28_215
## %bb.207:
	subl	%edi, %eax
	leal	(%r13,%r15), %ecx
	cmpl	%eax, %ecx
	jbe	LBB28_210
	.p2align	4, 0x90
LBB28_209:                              ## =>This Inner Loop Header: Depth=1
	testl	%eax, %eax
	js	LBB28_215
## %bb.208:                             ##   in Loop: Header=BB28_209 Depth=1
	addl	%eax, %eax
	cmpl	%eax, %ecx
	ja	LBB28_209
LBB28_210:
	movq	%r15, %rbx
	movl	%eax, %r15d
	movq	%r15, %rsi
	callq	_realloc
	testq	%rax, %rax
	je	LBB28_215
## %bb.211:
	movq	%rax, 32(%r14)
	movl	%ebx, %ebx
	addq	%rax, %rbx
	movq	%rbx, 24(%r14)
	addq	%rax, %r15
	movq	%r15, 40(%r14)
	movq	%rbx, %r15
	movq	(%r14), %rsi
LBB28_212:
	movq	%r15, %rdi
	movq	%r13, %rdx
	callq	_memcpy
	addq	%r13, (%r14)
	addq	24(%r14), %r13
	movq	%r13, 24(%r14)
	movq	%r13, %r15
	movq	-2568(%rbp), %r10       ## 8-byte Reload
LBB28_213:
	cmpl	$0, -2572(%rbp)         ## 4-byte Folded Reload
	leaq	_stbi__compute_huffman_codes.length_dezigzag(%rip), %r8
	je	LBB28_11
## %bb.227:
	movl	$1, %ebx
	jmp	LBB28_217
LBB28_215:
	leaq	L_.str.67(%rip), %rcx
LBB28_216:
	movq	_stbi__g_failure_reason@TLVP(%rip), %rdi
	callq	*(%rdi)
	movq	%rcx, (%rax)
	xorl	%ebx, %ebx
LBB28_217:
	movq	___stack_chk_guard@GOTPCREL(%rip), %rax
	movq	(%rax), %rax
	cmpq	-48(%rbp), %rax
	jne	LBB28_229
## %bb.218:
	movl	%ebx, %eax
	addq	$2568, %rsp             ## imm = 0xA08
	popq	%rbx
	popq	%r12
	popq	%r13
	popq	%r14
	popq	%r15
	popq	%rbp
	retq
LBB28_219:
	leaq	L_.str.80(%rip), %rcx
	jmp	LBB28_216
LBB28_220:
	leaq	L_.str.88(%rip), %rcx
	jmp	LBB28_216
LBB28_221:
	leaq	L_.str.81(%rip), %rcx
	jmp	LBB28_216
LBB28_228:
	leaq	L_.str.84(%rip), %rcx
	jmp	LBB28_216
LBB28_223:
	leaq	L_.str.89(%rip), %rcx
	jmp	LBB28_216
LBB28_225:
	leaq	L_.str.82(%rip), %rcx
	jmp	LBB28_216
LBB28_226:
	leaq	L_.str.83(%rip), %rcx
	jmp	LBB28_216
LBB28_229:
	callq	___stack_chk_fail
	.cfi_endproc
                                        ## -- End function
	.globl	_stbi_zlib_decode_malloc ## -- Begin function stbi_zlib_decode_malloc
	.p2align	4, 0x90
_stbi_zlib_decode_malloc:               ## @stbi_zlib_decode_malloc
	.cfi_startproc
## %bb.0:
	pushq	%rbp
	.cfi_def_cfa_offset 16
	.cfi_offset %rbp, -16
	movq	%rsp, %rbp
	.cfi_def_cfa_register %rbp
	pushq	%r15
	pushq	%r14
	pushq	%rbx
	subq	$4104, %rsp             ## imm = 0x1008
	.cfi_offset %rbx, -40
	.cfi_offset %r14, -32
	.cfi_offset %r15, -24
	movq	%rdx, %r14
	movl	%esi, %r15d
	movq	%rdi, %rbx
	movq	___stack_chk_guard@GOTPCREL(%rip), %rax
	movq	(%rax), %rax
	movq	%rax, -32(%rbp)
	movl	$16384, %edi            ## imm = 0x4000
	callq	_malloc
	testq	%rax, %rax
	je	LBB29_6
## %bb.1:
	movq	%rbx, -4128(%rbp)
	movslq	%r15d, %rcx
	addq	%rbx, %rcx
	movq	%rcx, -4120(%rbp)
	leaq	-4128(%rbp), %rdi
	movq	%rax, %rsi
	movl	$16384, %edx            ## imm = 0x4000
	movl	$1, %ecx
	movl	$1, %r8d
	callq	_stbi__do_zlib
	testl	%eax, %eax
	je	LBB29_5
## %bb.2:
	testq	%r14, %r14
	je	LBB29_3
## %bb.4:
	movl	-4104(%rbp), %ecx
	movq	-4096(%rbp), %rax
	subl	%eax, %ecx
	movl	%ecx, (%r14)
	jmp	LBB29_7
LBB29_5:
	movq	-4096(%rbp), %rdi
	callq	_free
LBB29_6:
	xorl	%eax, %eax
LBB29_7:
	movq	___stack_chk_guard@GOTPCREL(%rip), %rcx
	movq	(%rcx), %rcx
	cmpq	-32(%rbp), %rcx
	jne	LBB29_9
## %bb.8:
	addq	$4104, %rsp             ## imm = 0x1008
	popq	%rbx
	popq	%r14
	popq	%r15
	popq	%rbp
	retq
LBB29_3:
	movq	-4096(%rbp), %rax
	jmp	LBB29_7
LBB29_9:
	callq	___stack_chk_fail
	.cfi_endproc
                                        ## -- End function
	.globl	_stbi_zlib_decode_malloc_guesssize_headerflag ## -- Begin function stbi_zlib_decode_malloc_guesssize_headerflag
	.p2align	4, 0x90
_stbi_zlib_decode_malloc_guesssize_headerflag: ## @stbi_zlib_decode_malloc_guesssize_headerflag
	.cfi_startproc
## %bb.0:
	pushq	%rbp
	.cfi_def_cfa_offset 16
	.cfi_offset %rbp, -16
	movq	%rsp, %rbp
	.cfi_def_cfa_register %rbp
	pushq	%r15
	pushq	%r14
	pushq	%r13
	pushq	%r12
	pushq	%rbx
	subq	$4104, %rsp             ## imm = 0x1008
	.cfi_offset %rbx, -56
	.cfi_offset %r12, -48
	.cfi_offset %r13, -40
	.cfi_offset %r14, -32
	.cfi_offset %r15, -24
	movl	%r8d, %r15d
	movq	%rcx, %r14
	movl	%edx, %r12d
	movl	%esi, %r13d
	movq	%rdi, %rbx
	movq	___stack_chk_guard@GOTPCREL(%rip), %rax
	movq	(%rax), %rax
	movq	%rax, -48(%rbp)
	movslq	%edx, %rdi
	callq	_malloc
	testq	%rax, %rax
	je	LBB30_6
## %bb.1:
	movq	%rbx, -4144(%rbp)
	movslq	%r13d, %rcx
	addq	%rbx, %rcx
	movq	%rcx, -4136(%rbp)
	leaq	-4144(%rbp), %rdi
	movq	%rax, %rsi
	movl	%r12d, %edx
	movl	$1, %ecx
	movl	%r15d, %r8d
	callq	_stbi__do_zlib
	testl	%eax, %eax
	je	LBB30_5
## %bb.2:
	testq	%r14, %r14
	je	LBB30_3
## %bb.4:
	movl	-4120(%rbp), %ecx
	movq	-4112(%rbp), %rax
	subl	%eax, %ecx
	movl	%ecx, (%r14)
	jmp	LBB30_7
LBB30_5:
	movq	-4112(%rbp), %rdi
	callq	_free
LBB30_6:
	xorl	%eax, %eax
LBB30_7:
	movq	___stack_chk_guard@GOTPCREL(%rip), %rcx
	movq	(%rcx), %rcx
	cmpq	-48(%rbp), %rcx
	jne	LBB30_9
## %bb.8:
	addq	$4104, %rsp             ## imm = 0x1008
	popq	%rbx
	popq	%r12
	popq	%r13
	popq	%r14
	popq	%r15
	popq	%rbp
	retq
LBB30_3:
	movq	-4112(%rbp), %rax
	jmp	LBB30_7
LBB30_9:
	callq	___stack_chk_fail
	.cfi_endproc
                                        ## -- End function
	.globl	_stbi_zlib_decode_buffer ## -- Begin function stbi_zlib_decode_buffer
	.p2align	4, 0x90
_stbi_zlib_decode_buffer:               ## @stbi_zlib_decode_buffer
	.cfi_startproc
## %bb.0:
	pushq	%rbp
	.cfi_def_cfa_offset 16
	.cfi_offset %rbp, -16
	movq	%rsp, %rbp
	.cfi_def_cfa_register %rbp
	subq	$4112, %rsp             ## imm = 0x1010
	movl	%esi, %eax
	movq	%rdi, %rsi
	movq	___stack_chk_guard@GOTPCREL(%rip), %rdi
	movq	(%rdi), %rdi
	movq	%rdi, -8(%rbp)
	movq	%rdx, -4104(%rbp)
	movslq	%ecx, %rcx
	addq	%rdx, %rcx
	movq	%rcx, -4096(%rbp)
	leaq	-4104(%rbp), %rdi
	movl	%eax, %edx
	xorl	%ecx, %ecx
	movl	$1, %r8d
	callq	_stbi__do_zlib
	testl	%eax, %eax
	je	LBB31_1
## %bb.2:
	movl	-4080(%rbp), %eax
	subl	-4072(%rbp), %eax
	jmp	LBB31_3
LBB31_1:
	movl	$-1, %eax
LBB31_3:
	movq	___stack_chk_guard@GOTPCREL(%rip), %rcx
	movq	(%rcx), %rcx
	cmpq	-8(%rbp), %rcx
	jne	LBB31_5
## %bb.4:
	addq	$4112, %rsp             ## imm = 0x1010
	popq	%rbp
	retq
LBB31_5:
	callq	___stack_chk_fail
	.cfi_endproc
                                        ## -- End function
	.globl	_stbi_zlib_decode_noheader_malloc ## -- Begin function stbi_zlib_decode_noheader_malloc
	.p2align	4, 0x90
_stbi_zlib_decode_noheader_malloc:      ## @stbi_zlib_decode_noheader_malloc
	.cfi_startproc
## %bb.0:
	pushq	%rbp
	.cfi_def_cfa_offset 16
	.cfi_offset %rbp, -16
	movq	%rsp, %rbp
	.cfi_def_cfa_register %rbp
	pushq	%r15
	pushq	%r14
	pushq	%rbx
	subq	$4104, %rsp             ## imm = 0x1008
	.cfi_offset %rbx, -40
	.cfi_offset %r14, -32
	.cfi_offset %r15, -24
	movq	%rdx, %r14
	movl	%esi, %r15d
	movq	%rdi, %rbx
	movq	___stack_chk_guard@GOTPCREL(%rip), %rax
	movq	(%rax), %rax
	movq	%rax, -32(%rbp)
	movl	$16384, %edi            ## imm = 0x4000
	callq	_malloc
	testq	%rax, %rax
	je	LBB32_6
## %bb.1:
	movq	%rbx, -4128(%rbp)
	movslq	%r15d, %rcx
	addq	%rbx, %rcx
	movq	%rcx, -4120(%rbp)
	leaq	-4128(%rbp), %rdi
	movq	%rax, %rsi
	movl	$16384, %edx            ## imm = 0x4000
	movl	$1, %ecx
	xorl	%r8d, %r8d
	callq	_stbi__do_zlib
	testl	%eax, %eax
	je	LBB32_5
## %bb.2:
	testq	%r14, %r14
	je	LBB32_3
## %bb.4:
	movl	-4104(%rbp), %ecx
	movq	-4096(%rbp), %rax
	subl	%eax, %ecx
	movl	%ecx, (%r14)
	jmp	LBB32_7
LBB32_5:
	movq	-4096(%rbp), %rdi
	callq	_free
LBB32_6:
	xorl	%eax, %eax
LBB32_7:
	movq	___stack_chk_guard@GOTPCREL(%rip), %rcx
	movq	(%rcx), %rcx
	cmpq	-32(%rbp), %rcx
	jne	LBB32_9
## %bb.8:
	addq	$4104, %rsp             ## imm = 0x1008
	popq	%rbx
	popq	%r14
	popq	%r15
	popq	%rbp
	retq
LBB32_3:
	movq	-4096(%rbp), %rax
	jmp	LBB32_7
LBB32_9:
	callq	___stack_chk_fail
	.cfi_endproc
                                        ## -- End function
	.globl	_stbi_zlib_decode_noheader_buffer ## -- Begin function stbi_zlib_decode_noheader_buffer
	.p2align	4, 0x90
_stbi_zlib_decode_noheader_buffer:      ## @stbi_zlib_decode_noheader_buffer
	.cfi_startproc
## %bb.0:
	pushq	%rbp
	.cfi_def_cfa_offset 16
	.cfi_offset %rbp, -16
	movq	%rsp, %rbp
	.cfi_def_cfa_register %rbp
	subq	$4112, %rsp             ## imm = 0x1010
	movl	%esi, %eax
	movq	%rdi, %rsi
	movq	___stack_chk_guard@GOTPCREL(%rip), %rdi
	movq	(%rdi), %rdi
	movq	%rdi, -8(%rbp)
	movq	%rdx, -4104(%rbp)
	movslq	%ecx, %rcx
	addq	%rdx, %rcx
	movq	%rcx, -4096(%rbp)
	leaq	-4104(%rbp), %rdi
	movl	%eax, %edx
	xorl	%ecx, %ecx
	xorl	%r8d, %r8d
	callq	_stbi__do_zlib
	testl	%eax, %eax
	je	LBB33_1
## %bb.2:
	movl	-4080(%rbp), %eax
	subl	-4072(%rbp), %eax
	jmp	LBB33_3
LBB33_1:
	movl	$-1, %eax
LBB33_3:
	movq	___stack_chk_guard@GOTPCREL(%rip), %rcx
	movq	(%rcx), %rcx
	cmpq	-8(%rbp), %rcx
	jne	LBB33_5
## %bb.4:
	addq	$4112, %rsp             ## imm = 0x1010
	popq	%rbp
	retq
LBB33_5:
	callq	___stack_chk_fail
	.cfi_endproc
                                        ## -- End function
	.globl	_stbi_set_unpremultiply_on_load ## -- Begin function stbi_set_unpremultiply_on_load
	.p2align	4, 0x90
_stbi_set_unpremultiply_on_load:        ## @stbi_set_unpremultiply_on_load
	.cfi_startproc
## %bb.0:
	pushq	%rbp
	.cfi_def_cfa_offset 16
	.cfi_offset %rbp, -16
	movq	%rsp, %rbp
	.cfi_def_cfa_register %rbp
	movl	%edi, _stbi__unpremultiply_on_load_global(%rip)
	popq	%rbp
	retq
	.cfi_endproc
                                        ## -- End function
	.globl	_stbi_convert_iphone_png_to_rgb ## -- Begin function stbi_convert_iphone_png_to_rgb
	.p2align	4, 0x90
_stbi_convert_iphone_png_to_rgb:        ## @stbi_convert_iphone_png_to_rgb
	.cfi_startproc
## %bb.0:
	pushq	%rbp
	.cfi_def_cfa_offset 16
	.cfi_offset %rbp, -16
	movq	%rsp, %rbp
	.cfi_def_cfa_register %rbp
	movl	%edi, _stbi__de_iphone_flag_global(%rip)
	popq	%rbp
	retq
	.cfi_endproc
                                        ## -- End function
	.globl	_stbi__unpremultiply_on_load_thread ## -- Begin function stbi__unpremultiply_on_load_thread
	.p2align	4, 0x90
_stbi__unpremultiply_on_load_thread:    ## @stbi__unpremultiply_on_load_thread
	.cfi_startproc
## %bb.0:
	pushq	%rbp
	.cfi_def_cfa_offset 16
	.cfi_offset %rbp, -16
	movq	%rsp, %rbp
	.cfi_def_cfa_register %rbp
	movl	%edi, %ecx
	movq	_stbi__unpremultiply_on_load_local@TLVP(%rip), %rdi
	callq	*(%rdi)
	movl	%ecx, (%rax)
	movq	_stbi__unpremultiply_on_load_set@TLVP(%rip), %rdi
	callq	*(%rdi)
	movb	$1, (%rax)
	popq	%rbp
	retq
	.cfi_endproc
                                        ## -- End function
	.globl	_stbi_convert_iphone_png_to_rgb_thread ## -- Begin function stbi_convert_iphone_png_to_rgb_thread
	.p2align	4, 0x90
_stbi_convert_iphone_png_to_rgb_thread: ## @stbi_convert_iphone_png_to_rgb_thread
	.cfi_startproc
## %bb.0:
	pushq	%rbp
	.cfi_def_cfa_offset 16
	.cfi_offset %rbp, -16
	movq	%rsp, %rbp
	.cfi_def_cfa_register %rbp
	movl	%edi, %ecx
	movq	_stbi__de_iphone_flag_local@TLVP(%rip), %rdi
	callq	*(%rdi)
	movl	%ecx, (%rax)
	movq	_stbi__de_iphone_flag_set@TLVP(%rip), %rdi
	callq	*(%rdi)
	movb	$1, (%rax)
	popq	%rbp
	retq
	.cfi_endproc
                                        ## -- End function
	.globl	_stbi_info              ## -- Begin function stbi_info
	.p2align	4, 0x90
_stbi_info:                             ## @stbi_info
	.cfi_startproc
## %bb.0:
	pushq	%rbp
	.cfi_def_cfa_offset 16
	.cfi_offset %rbp, -16
	movq	%rsp, %rbp
	.cfi_def_cfa_register %rbp
	pushq	%r15
	pushq	%r14
	pushq	%r12
	pushq	%rbx
	.cfi_offset %rbx, -48
	.cfi_offset %r12, -40
	.cfi_offset %r14, -32
	.cfi_offset %r15, -24
	movq	%rcx, %r14
	movq	%rdx, %r15
	movq	%rsi, %r12
	leaq	L_.str(%rip), %rsi
	callq	_fopen
	testq	%rax, %rax
	je	LBB38_1
## %bb.3:
	movq	%rax, %rbx
	movq	%rax, %rdi
	movq	%r12, %rsi
	movq	%r15, %rdx
	movq	%r14, %rcx
	callq	_stbi_info_from_file
	movl	%eax, %r14d
	movq	%rbx, %rdi
	callq	_fclose
	movl	%r14d, %eax
	jmp	LBB38_2
LBB38_1:
	leaq	L_.str.1(%rip), %rcx
	movq	_stbi__g_failure_reason@TLVP(%rip), %rdi
	callq	*(%rdi)
	movq	%rcx, (%rax)
	xorl	%eax, %eax
LBB38_2:
	popq	%rbx
	popq	%r12
	popq	%r14
	popq	%r15
	popq	%rbp
	retq
	.cfi_endproc
                                        ## -- End function
	.globl	_stbi_info_from_file    ## -- Begin function stbi_info_from_file
	.p2align	4, 0x90
_stbi_info_from_file:                   ## @stbi_info_from_file
	.cfi_startproc
## %bb.0:
	pushq	%rbp
	.cfi_def_cfa_offset 16
	.cfi_offset %rbp, -16
	movq	%rsp, %rbp
	.cfi_def_cfa_register %rbp
	pushq	%r15
	pushq	%r14
	pushq	%r13
	pushq	%r12
	pushq	%rbx
	subq	$296, %rsp              ## imm = 0x128
	.cfi_offset %rbx, -56
	.cfi_offset %r12, -48
	.cfi_offset %r13, -40
	.cfi_offset %r14, -32
	.cfi_offset %r15, -24
	movq	%rcx, -280(%rbp)        ## 8-byte Spill
	movq	%rdx, %r12
	movq	%rsi, %r13
	movq	%rdi, %r15
	movq	___stack_chk_guard@GOTPCREL(%rip), %rax
	movq	(%rax), %rax
	movq	%rax, -48(%rbp)
	callq	_ftell
	movq	%rax, -288(%rbp)        ## 8-byte Spill
	movq	_stbi__stdio_callbacks(%rip), %rax
	movq	%rax, -256(%rbp)
	movq	_stbi__stdio_callbacks+8(%rip), %rcx
	movq	%rcx, -248(%rbp)
	movq	_stbi__stdio_callbacks+16(%rip), %rcx
	movq	%rcx, -240(%rbp)
	movq	%r15, -232(%rbp)
	movabsq	$549755813889, %rcx     ## imm = 0x8000000001
	movq	%rcx, -224(%rbp)
	movl	$0, -88(%rbp)
	leaq	-216(%rbp), %rbx
	movq	%rbx, -64(%rbp)
	movq	%rbx, -80(%rbp)
	movq	%r15, %rdi
	movq	%rbx, %rsi
	movl	$128, %edx
	callq	*%rax
	movl	-80(%rbp), %ecx
	subl	-64(%rbp), %ecx
	addl	%ecx, -88(%rbp)
	testl	%eax, %eax
	je	LBB39_1
## %bb.2:
	movq	%rbx, -80(%rbp)
	cltq
	leaq	-216(%rbp,%rax), %rax
	jmp	LBB39_3
LBB39_1:
	movl	$0, -224(%rbp)
	movq	%rbx, -80(%rbp)
	leaq	-215(%rbp), %rax
	movb	$0, -216(%rbp)
LBB39_3:
	movq	%rax, -72(%rbp)
	movq	%rax, -56(%rbp)
	leaq	-272(%rbp), %rax
	movq	%rax, -328(%rbp)
	leaq	-328(%rbp), %rdi
	xorl	%r14d, %r14d
	movl	$2, %esi
	xorl	%edx, %edx
	callq	_stbi__parse_png_file
	testl	%eax, %eax
	je	LBB39_11
## %bb.4:
	testq	%r13, %r13
	je	LBB39_6
## %bb.5:
	movq	-328(%rbp), %rax
	movl	(%rax), %eax
	movl	%eax, (%r13)
LBB39_6:
	testq	%r12, %r12
	movq	-280(%rbp), %rcx        ## 8-byte Reload
	je	LBB39_8
## %bb.7:
	movq	-328(%rbp), %rax
	movl	4(%rax), %eax
	movl	%eax, (%r12)
LBB39_8:
	testq	%rcx, %rcx
	je	LBB39_10
## %bb.9:
	movq	-328(%rbp), %rax
	movl	8(%rax), %eax
	movl	%eax, (%rcx)
LBB39_10:
	movl	$1, %r14d
	jmp	LBB39_12
LBB39_11:
	movq	-328(%rbp), %rax
	movups	208(%rax), %xmm0
	movups	%xmm0, 192(%rax)
	leaq	L_.str.47(%rip), %rcx
	movq	_stbi__g_failure_reason@TLVP(%rip), %rdi
	callq	*(%rdi)
	movq	%rcx, (%rax)
LBB39_12:
	movq	%r15, %rdi
	movq	-288(%rbp), %rsi        ## 8-byte Reload
	xorl	%edx, %edx
	callq	_fseek
	movq	___stack_chk_guard@GOTPCREL(%rip), %rax
	movq	(%rax), %rax
	cmpq	-48(%rbp), %rax
	jne	LBB39_14
## %bb.13:
	movl	%r14d, %eax
	addq	$296, %rsp              ## imm = 0x128
	popq	%rbx
	popq	%r12
	popq	%r13
	popq	%r14
	popq	%r15
	popq	%rbp
	retq
LBB39_14:
	callq	___stack_chk_fail
	.cfi_endproc
                                        ## -- End function
	.globl	_stbi_is_16_bit         ## -- Begin function stbi_is_16_bit
	.p2align	4, 0x90
_stbi_is_16_bit:                        ## @stbi_is_16_bit
	.cfi_startproc
## %bb.0:
	pushq	%rbp
	.cfi_def_cfa_offset 16
	.cfi_offset %rbp, -16
	movq	%rsp, %rbp
	.cfi_def_cfa_register %rbp
	pushq	%r14
	pushq	%rbx
	.cfi_offset %rbx, -32
	.cfi_offset %r14, -24
	leaq	L_.str(%rip), %rsi
	callq	_fopen
	testq	%rax, %rax
	je	LBB40_1
## %bb.3:
	movq	%rax, %rbx
	movq	%rax, %rdi
	callq	_stbi_is_16_bit_from_file
	movl	%eax, %r14d
	movq	%rbx, %rdi
	callq	_fclose
	movl	%r14d, %eax
	jmp	LBB40_2
LBB40_1:
	leaq	L_.str.1(%rip), %rcx
	movq	_stbi__g_failure_reason@TLVP(%rip), %rdi
	callq	*(%rdi)
	movq	%rcx, (%rax)
	xorl	%eax, %eax
LBB40_2:
	popq	%rbx
	popq	%r14
	popq	%rbp
	retq
	.cfi_endproc
                                        ## -- End function
	.globl	_stbi_is_16_bit_from_file ## -- Begin function stbi_is_16_bit_from_file
	.p2align	4, 0x90
_stbi_is_16_bit_from_file:              ## @stbi_is_16_bit_from_file
	.cfi_startproc
## %bb.0:
	pushq	%rbp
	.cfi_def_cfa_offset 16
	.cfi_offset %rbp, -16
	movq	%rsp, %rbp
	.cfi_def_cfa_register %rbp
	pushq	%r15
	pushq	%r14
	pushq	%r12
	pushq	%rbx
	subq	$272, %rsp              ## imm = 0x110
	.cfi_offset %rbx, -48
	.cfi_offset %r12, -40
	.cfi_offset %r14, -32
	.cfi_offset %r15, -24
	movq	%rdi, %r12
	movq	___stack_chk_guard@GOTPCREL(%rip), %rax
	movq	(%rax), %rax
	movq	%rax, -40(%rbp)
	callq	_ftell
	movq	%rax, %r14
	movq	_stbi__stdio_callbacks(%rip), %rax
	movq	%rax, -248(%rbp)
	movq	_stbi__stdio_callbacks+8(%rip), %rcx
	movq	%rcx, -240(%rbp)
	movq	_stbi__stdio_callbacks+16(%rip), %rcx
	movq	%rcx, -232(%rbp)
	movq	%r12, -224(%rbp)
	movabsq	$549755813889, %rcx     ## imm = 0x8000000001
	movq	%rcx, -216(%rbp)
	movl	$0, -80(%rbp)
	leaq	-208(%rbp), %rbx
	movq	%rbx, -56(%rbp)
	movq	%rbx, -72(%rbp)
	movq	%r12, %rdi
	movq	%rbx, %rsi
	movl	$128, %edx
	callq	*%rax
	movl	-72(%rbp), %ecx
	subl	-56(%rbp), %ecx
	addl	%ecx, -80(%rbp)
	testl	%eax, %eax
	je	LBB41_1
## %bb.2:
	movq	%rbx, -72(%rbp)
	cltq
	leaq	-208(%rbp,%rax), %rax
	jmp	LBB41_3
LBB41_1:
	movl	$0, -216(%rbp)
	movq	%rbx, -72(%rbp)
	leaq	-207(%rbp), %rax
	movb	$0, -208(%rbp)
LBB41_3:
	movq	%rax, -64(%rbp)
	movq	%rax, -48(%rbp)
	leaq	-264(%rbp), %rax
	movq	%rax, -304(%rbp)
	leaq	-304(%rbp), %rdi
	xorl	%r15d, %r15d
	movl	$2, %esi
	xorl	%edx, %edx
	callq	_stbi__parse_png_file
	testl	%eax, %eax
	je	LBB41_6
## %bb.4:
	cmpl	$16, -272(%rbp)
	jne	LBB41_6
## %bb.5:
	movl	$1, %r15d
	jmp	LBB41_7
LBB41_6:
	movq	-304(%rbp), %rax
	movups	208(%rax), %xmm0
	movups	%xmm0, 192(%rax)
LBB41_7:
	movq	%r12, %rdi
	movq	%r14, %rsi
	xorl	%edx, %edx
	callq	_fseek
	movq	___stack_chk_guard@GOTPCREL(%rip), %rax
	movq	(%rax), %rax
	cmpq	-40(%rbp), %rax
	jne	LBB41_9
## %bb.8:
	movl	%r15d, %eax
	addq	$272, %rsp              ## imm = 0x110
	popq	%rbx
	popq	%r12
	popq	%r14
	popq	%r15
	popq	%rbp
	retq
LBB41_9:
	callq	___stack_chk_fail
	.cfi_endproc
                                        ## -- End function
	.globl	_stbi_info_from_memory  ## -- Begin function stbi_info_from_memory
	.p2align	4, 0x90
_stbi_info_from_memory:                 ## @stbi_info_from_memory
	.cfi_startproc
## %bb.0:
	pushq	%rbp
	.cfi_def_cfa_offset 16
	.cfi_offset %rbp, -16
	movq	%rsp, %rbp
	.cfi_def_cfa_register %rbp
	pushq	%r15
	pushq	%r14
	pushq	%r12
	pushq	%rbx
	subq	$272, %rsp              ## imm = 0x110
	.cfi_offset %rbx, -48
	.cfi_offset %r12, -40
	.cfi_offset %r14, -32
	.cfi_offset %r15, -24
	movq	%r8, %r14
	movq	%rcx, %r15
	movq	%rdx, %r12
	movq	___stack_chk_guard@GOTPCREL(%rip), %rax
	movq	(%rax), %rax
	movq	%rax, -40(%rbp)
	movq	$0, -248(%rbp)
	movl	$0, -216(%rbp)
	movl	$0, -80(%rbp)
	movq	%rdi, -56(%rbp)
	movq	%rdi, -72(%rbp)
	movslq	%esi, %rax
	addq	%rdi, %rax
	movq	%rax, -48(%rbp)
	movq	%rax, -64(%rbp)
	leaq	-264(%rbp), %rax
	movq	%rax, -304(%rbp)
	leaq	-304(%rbp), %rdi
	xorl	%ebx, %ebx
	movl	$2, %esi
	xorl	%edx, %edx
	callq	_stbi__parse_png_file
	testl	%eax, %eax
	je	LBB42_8
## %bb.1:
	testq	%r12, %r12
	je	LBB42_3
## %bb.2:
	movq	-304(%rbp), %rax
	movl	(%rax), %eax
	movl	%eax, (%r12)
LBB42_3:
	testq	%r15, %r15
	je	LBB42_5
## %bb.4:
	movq	-304(%rbp), %rax
	movl	4(%rax), %eax
	movl	%eax, (%r15)
LBB42_5:
	testq	%r14, %r14
	je	LBB42_7
## %bb.6:
	movq	-304(%rbp), %rax
	movl	8(%rax), %eax
	movl	%eax, (%r14)
LBB42_7:
	movl	$1, %ebx
	jmp	LBB42_9
LBB42_8:
	movq	-304(%rbp), %rax
	movups	208(%rax), %xmm0
	movups	%xmm0, 192(%rax)
	leaq	L_.str.47(%rip), %rcx
	movq	_stbi__g_failure_reason@TLVP(%rip), %rdi
	callq	*(%rdi)
	movq	%rcx, (%rax)
LBB42_9:
	movq	___stack_chk_guard@GOTPCREL(%rip), %rax
	movq	(%rax), %rax
	cmpq	-40(%rbp), %rax
	jne	LBB42_11
## %bb.10:
	movl	%ebx, %eax
	addq	$272, %rsp              ## imm = 0x110
	popq	%rbx
	popq	%r12
	popq	%r14
	popq	%r15
	popq	%rbp
	retq
LBB42_11:
	callq	___stack_chk_fail
	.cfi_endproc
                                        ## -- End function
	.globl	_stbi_info_from_callbacks ## -- Begin function stbi_info_from_callbacks
	.p2align	4, 0x90
_stbi_info_from_callbacks:              ## @stbi_info_from_callbacks
	.cfi_startproc
## %bb.0:
	pushq	%rbp
	.cfi_def_cfa_offset 16
	.cfi_offset %rbp, -16
	movq	%rsp, %rbp
	.cfi_def_cfa_register %rbp
	pushq	%r15
	pushq	%r14
	pushq	%r12
	pushq	%rbx
	subq	$272, %rsp              ## imm = 0x110
	.cfi_offset %rbx, -48
	.cfi_offset %r12, -40
	.cfi_offset %r14, -32
	.cfi_offset %r15, -24
	movq	%r8, %r14
	movq	%rcx, %r15
	movq	%rdx, %r12
	movq	___stack_chk_guard@GOTPCREL(%rip), %rax
	movq	(%rax), %rax
	movq	%rax, -40(%rbp)
	movq	16(%rdi), %rax
	movq	%rax, -232(%rbp)
	movq	(%rdi), %rax
	movq	8(%rdi), %rcx
	movq	%rcx, -240(%rbp)
	movq	%rax, -248(%rbp)
	movq	%rsi, -224(%rbp)
	movabsq	$549755813889, %rcx     ## imm = 0x8000000001
	movq	%rcx, -216(%rbp)
	movl	$0, -80(%rbp)
	leaq	-208(%rbp), %rbx
	movq	%rbx, -56(%rbp)
	movq	%rbx, -72(%rbp)
	movq	%rsi, %rdi
	movq	%rbx, %rsi
	movl	$128, %edx
	callq	*%rax
	movl	-72(%rbp), %ecx
	subl	-56(%rbp), %ecx
	addl	%ecx, -80(%rbp)
	testl	%eax, %eax
	je	LBB43_1
## %bb.2:
	movq	%rbx, -72(%rbp)
	cltq
	leaq	-208(%rbp,%rax), %rax
	jmp	LBB43_3
LBB43_1:
	movl	$0, -216(%rbp)
	movq	%rbx, -72(%rbp)
	leaq	-207(%rbp), %rax
	movb	$0, -208(%rbp)
LBB43_3:
	movq	%rax, -64(%rbp)
	movq	%rax, -48(%rbp)
	leaq	-264(%rbp), %rax
	movq	%rax, -304(%rbp)
	leaq	-304(%rbp), %rdi
	xorl	%ebx, %ebx
	movl	$2, %esi
	xorl	%edx, %edx
	callq	_stbi__parse_png_file
	testl	%eax, %eax
	je	LBB43_11
## %bb.4:
	testq	%r12, %r12
	je	LBB43_6
## %bb.5:
	movq	-304(%rbp), %rax
	movl	(%rax), %eax
	movl	%eax, (%r12)
LBB43_6:
	testq	%r15, %r15
	je	LBB43_8
## %bb.7:
	movq	-304(%rbp), %rax
	movl	4(%rax), %eax
	movl	%eax, (%r15)
LBB43_8:
	testq	%r14, %r14
	je	LBB43_10
## %bb.9:
	movq	-304(%rbp), %rax
	movl	8(%rax), %eax
	movl	%eax, (%r14)
LBB43_10:
	movl	$1, %ebx
	jmp	LBB43_12
LBB43_11:
	movq	-304(%rbp), %rax
	movups	208(%rax), %xmm0
	movups	%xmm0, 192(%rax)
	leaq	L_.str.47(%rip), %rcx
	movq	_stbi__g_failure_reason@TLVP(%rip), %rdi
	callq	*(%rdi)
	movq	%rcx, (%rax)
LBB43_12:
	movq	___stack_chk_guard@GOTPCREL(%rip), %rax
	movq	(%rax), %rax
	cmpq	-40(%rbp), %rax
	jne	LBB43_14
## %bb.13:
	movl	%ebx, %eax
	addq	$272, %rsp              ## imm = 0x110
	popq	%rbx
	popq	%r12
	popq	%r14
	popq	%r15
	popq	%rbp
	retq
LBB43_14:
	callq	___stack_chk_fail
	.cfi_endproc
                                        ## -- End function
	.globl	_stbi_is_16_bit_from_memory ## -- Begin function stbi_is_16_bit_from_memory
	.p2align	4, 0x90
_stbi_is_16_bit_from_memory:            ## @stbi_is_16_bit_from_memory
	.cfi_startproc
## %bb.0:
	pushq	%rbp
	.cfi_def_cfa_offset 16
	.cfi_offset %rbp, -16
	movq	%rsp, %rbp
	.cfi_def_cfa_register %rbp
	pushq	%rbx
	subq	$280, %rsp              ## imm = 0x118
	.cfi_offset %rbx, -24
	movq	___stack_chk_guard@GOTPCREL(%rip), %rax
	movq	(%rax), %rax
	movq	%rax, -16(%rbp)
	movq	$0, -224(%rbp)
	movl	$0, -192(%rbp)
	movl	$0, -56(%rbp)
	movq	%rdi, -32(%rbp)
	movq	%rdi, -48(%rbp)
	movslq	%esi, %rax
	addq	%rdi, %rax
	movq	%rax, -24(%rbp)
	movq	%rax, -40(%rbp)
	leaq	-240(%rbp), %rax
	movq	%rax, -280(%rbp)
	leaq	-280(%rbp), %rdi
	xorl	%ebx, %ebx
	movl	$2, %esi
	xorl	%edx, %edx
	callq	_stbi__parse_png_file
	testl	%eax, %eax
	je	LBB44_3
## %bb.1:
	cmpl	$16, -248(%rbp)
	jne	LBB44_3
## %bb.2:
	movl	$1, %ebx
	jmp	LBB44_4
LBB44_3:
	movq	-280(%rbp), %rax
	movups	208(%rax), %xmm0
	movups	%xmm0, 192(%rax)
LBB44_4:
	movq	___stack_chk_guard@GOTPCREL(%rip), %rax
	movq	(%rax), %rax
	cmpq	-16(%rbp), %rax
	jne	LBB44_6
## %bb.5:
	movl	%ebx, %eax
	addq	$280, %rsp              ## imm = 0x118
	popq	%rbx
	popq	%rbp
	retq
LBB44_6:
	callq	___stack_chk_fail
	.cfi_endproc
                                        ## -- End function
	.globl	_stbi_is_16_bit_from_callbacks ## -- Begin function stbi_is_16_bit_from_callbacks
	.p2align	4, 0x90
_stbi_is_16_bit_from_callbacks:         ## @stbi_is_16_bit_from_callbacks
	.cfi_startproc
## %bb.0:
	pushq	%rbp
	.cfi_def_cfa_offset 16
	.cfi_offset %rbp, -16
	movq	%rsp, %rbp
	.cfi_def_cfa_register %rbp
	pushq	%rbx
	subq	$280, %rsp              ## imm = 0x118
	.cfi_offset %rbx, -24
	movq	___stack_chk_guard@GOTPCREL(%rip), %rax
	movq	(%rax), %rax
	movq	%rax, -16(%rbp)
	movq	16(%rdi), %rax
	movq	%rax, -208(%rbp)
	movq	(%rdi), %rax
	movq	8(%rdi), %rcx
	movq	%rcx, -216(%rbp)
	movq	%rax, -224(%rbp)
	movq	%rsi, -200(%rbp)
	movabsq	$549755813889, %rcx     ## imm = 0x8000000001
	movq	%rcx, -192(%rbp)
	movl	$0, -56(%rbp)
	leaq	-184(%rbp), %rbx
	movq	%rbx, -32(%rbp)
	movq	%rbx, -48(%rbp)
	movq	%rsi, %rdi
	movq	%rbx, %rsi
	movl	$128, %edx
	callq	*%rax
	movl	-48(%rbp), %ecx
	subl	-32(%rbp), %ecx
	addl	%ecx, -56(%rbp)
	testl	%eax, %eax
	je	LBB45_1
## %bb.2:
	movq	%rbx, -48(%rbp)
	cltq
	leaq	-184(%rbp,%rax), %rax
	jmp	LBB45_3
LBB45_1:
	movl	$0, -192(%rbp)
	movq	%rbx, -48(%rbp)
	leaq	-183(%rbp), %rax
	movb	$0, -184(%rbp)
LBB45_3:
	movq	%rax, -40(%rbp)
	movq	%rax, -24(%rbp)
	leaq	-240(%rbp), %rax
	movq	%rax, -280(%rbp)
	leaq	-280(%rbp), %rdi
	xorl	%ebx, %ebx
	movl	$2, %esi
	xorl	%edx, %edx
	callq	_stbi__parse_png_file
	testl	%eax, %eax
	je	LBB45_6
## %bb.4:
	cmpl	$16, -248(%rbp)
	jne	LBB45_6
## %bb.5:
	movl	$1, %ebx
	jmp	LBB45_7
LBB45_6:
	movq	-280(%rbp), %rax
	movups	208(%rax), %xmm0
	movups	%xmm0, 192(%rax)
LBB45_7:
	movq	___stack_chk_guard@GOTPCREL(%rip), %rax
	movq	(%rax), %rax
	cmpq	-16(%rbp), %rax
	jne	LBB45_9
## %bb.8:
	movl	%ebx, %eax
	addq	$280, %rsp              ## imm = 0x118
	popq	%rbx
	popq	%rbp
	retq
LBB45_9:
	callq	___stack_chk_fail
	.cfi_endproc
                                        ## -- End function
	.globl	_stbtt_FindGlyphIndex   ## -- Begin function stbtt_FindGlyphIndex
	.p2align	4, 0x90
_stbtt_FindGlyphIndex:                  ## @stbtt_FindGlyphIndex
	.cfi_startproc
## %bb.0:
	pushq	%rbp
	.cfi_def_cfa_offset 16
	.cfi_offset %rbp, -16
	movq	%rsp, %rbp
	.cfi_def_cfa_register %rbp
	pushq	%r15
	pushq	%r14
	pushq	%r13
	pushq	%r12
	pushq	%rbx
	pushq	%rax
	.cfi_offset %rbx, -56
	.cfi_offset %r12, -48
	.cfi_offset %r13, -40
	.cfi_offset %r14, -32
	.cfi_offset %r15, -24
                                        ## kill: def $esi killed $esi def $rsi
	movq	8(%rdi), %r12
	movl	56(%rdi), %r11d
	leaq	(%r12,%r11), %r13
	movzwl	(%r12,%r11), %r8d
	rolw	$8, %r8w
	cmpw	$6, %r8w
	ja	LBB46_11
## %bb.1:
	movzwl	%r8w, %eax
	leaq	LJTI46_0(%rip), %rcx
	movslq	(%rcx,%rax,4), %rax
	addq	%rcx, %rax
	jmpq	*%rax
LBB46_2:
	movzbl	2(%r13), %eax
	shll	$8, %eax
	movzbl	3(%r13), %ecx
	leal	-6(%rax,%rcx), %ecx
	xorl	%eax, %eax
	cmpl	%esi, %ecx
	jle	LBB46_37
## %bb.3:
	movslq	%esi, %rax
	movzbl	6(%r13,%rax), %eax
	jmp	LBB46_37
LBB46_4:
	movzbl	6(%r13), %eax
	shll	$8, %eax
	movzbl	7(%r13), %edx
	orl	%eax, %edx
	xorl	%eax, %eax
	cmpl	%esi, %edx
	ja	LBB46_37
## %bb.5:
	movzbl	8(%r13), %ecx
	shll	$8, %ecx
	movzbl	9(%r13), %edi
	orl	%ecx, %edi
	addl	%edx, %edi
	cmpl	%esi, %edi
	jbe	LBB46_37
## %bb.6:
	subl	%edx, %esi
	addl	%esi, %esi
	movzbl	10(%r13,%rsi), %ecx
	shll	$8, %ecx
	movzbl	11(%r13,%rsi), %eax
	orl	%ecx, %eax
	jmp	LBB46_37
LBB46_7:
	xorl	%eax, %eax
	cmpl	$65535, %esi            ## imm = 0xFFFF
	jg	LBB46_37
## %bb.8:
	movzbl	6(%r13), %eax
	shlq	$8, %rax
	movzbl	7(%r13), %r8d
	orq	%rax, %r8
	leal	14(%r11), %r10d
	movzbl	12(%r12,%r11), %ecx
	shlq	$8, %rcx
	movzbl	10(%r12,%r11), %r14d
	shll	$8, %r14d
	movzbl	11(%r12,%r11), %eax
	movzbl	13(%r12,%r11), %edx
	andl	$-2, %edx
	orq	%rcx, %rdx
	addq	%r12, %r10
	movzbl	(%r10,%rdx), %ecx
	shll	$8, %ecx
	movzbl	1(%r10,%rdx), %edi
	orl	%ecx, %edi
	xorl	%ecx, %ecx
	cmpl	%esi, %edi
	cmovgl	%ecx, %edx
	orw	%ax, %r14w
	leal	12(%r11,%rdx), %r15d
	je	LBB46_21
## %bb.9:
	movzbl	8(%r13), %ecx
	shlq	$8, %rcx
	movzbl	9(%r13), %r9d
	orq	%rcx, %r9
	movzwl	%ax, %eax
	testb	$1, %al
	jne	LBB46_22
## %bb.10:
                                        ## implicit-def: $eax
	movl	%r14d, %ebx
	cmpw	$1, %r14w
	jne	LBB46_23
	jmp	LBB46_29
LBB46_11:
	movl	%r8d, %eax
	andl	$65534, %eax            ## imm = 0xFFFE
	cmpw	$12, %ax
	jne	LBB46_39
## %bb.12:
	movl	12(%r13), %ebx
	bswapl	%ebx
	testl	%ebx, %ebx
	jle	LBB46_19
## %bb.13:
	xorl	%edx, %edx
	.p2align	4, 0x90
LBB46_14:                               ## =>This Inner Loop Header: Depth=1
	movl	%ebx, %eax
	subl	%edx, %eax
	sarl	%eax
	addl	%edx, %eax
	movslq	%eax, %rcx
	shlq	$2, %rcx
	leaq	(%rcx,%rcx,2), %rcx
	movl	16(%r13,%rcx), %edi
	bswapl	%edi
	cmpl	%esi, %edi
	jbe	LBB46_16
## %bb.15:                              ##   in Loop: Header=BB46_14 Depth=1
	movl	%eax, %ebx
	cmpl	%edx, %ebx
	jg	LBB46_14
	jmp	LBB46_19
	.p2align	4, 0x90
LBB46_16:                               ##   in Loop: Header=BB46_14 Depth=1
	movl	20(%r13,%rcx), %edx
	bswapl	%edx
	cmpl	%esi, %edx
	jae	LBB46_20
## %bb.17:                              ##   in Loop: Header=BB46_14 Depth=1
	incl	%eax
	movl	%eax, %edx
	cmpl	%edx, %ebx
	jg	LBB46_14
LBB46_19:
	xorl	%eax, %eax
	jmp	LBB46_37
LBB46_20:
	subl	%edi, %esi
	xorl	%eax, %eax
	cmpw	$12, %r8w
	movl	24(%r13,%rcx), %ecx
	bswapl	%ecx
	cmovel	%esi, %eax
	addl	%ecx, %eax
	jmp	LBB46_37
LBB46_21:
	movl	%r15d, %eax
	jmp	LBB46_29
LBB46_22:
	shrq	%r9
	movl	%r15d, %ecx
	addq	%r12, %rcx
	movl	%r9d, %eax
	andl	$-2, %eax
	movzbl	(%rax,%rcx), %edi
	shll	$8, %edi
	movzbl	1(%rax,%rcx), %ecx
	orl	%edi, %ecx
	xorl	%edi, %edi
	cmpl	%esi, %ecx
	cmovgel	%edi, %eax
	addl	%r15d, %eax
	leal	-1(%r14), %ebx
	movl	%eax, %r15d
	cmpw	$1, %r14w
	je	LBB46_29
LBB46_23:
	movl	%r15d, %eax
	.p2align	4, 0x90
LBB46_24:                               ## =>This Inner Loop Header: Depth=1
	movzwl	%r9w, %r9d
	movl	%r9d, %edi
	shrl	%edi
	movl	%eax, %ecx
	addq	%r12, %rcx
	andl	$-2, %edi
	movzbl	(%rdi,%rcx), %edx
	shll	$8, %edx
	movzbl	1(%rdi,%rcx), %ecx
	orl	%edx, %ecx
	cmpl	%esi, %ecx
	jl	LBB46_26
## %bb.25:                              ##   in Loop: Header=BB46_24 Depth=1
	xorl	%edi, %edi
LBB46_26:                               ##   in Loop: Header=BB46_24 Depth=1
	addl	%eax, %edi
	shrl	$2, %r9d
	leaq	(%r12,%rdi), %rcx
	movl	%r9d, %eax
	andl	$-2, %eax
	movzbl	(%rax,%rcx), %edx
	shll	$8, %edx
	movzbl	1(%rax,%rcx), %ecx
	orl	%edx, %ecx
	cmpl	%esi, %ecx
	jl	LBB46_28
## %bb.27:                              ##   in Loop: Header=BB46_24 Depth=1
	xorl	%eax, %eax
LBB46_28:                               ##   in Loop: Header=BB46_24 Depth=1
	addl	%edi, %eax
	addw	$-2, %bx
	jne	LBB46_24
LBB46_29:
	movl	$131058, %ecx           ## imm = 0x1FFF2
	subl	%r11d, %ecx
	leal	2(%rcx,%rax), %eax
	movl	%r8d, %ecx
	andl	$-2, %ecx
	leaq	14(%r13,%rcx), %rcx
	andl	$131070, %eax           ## imm = 0x1FFFE
	movzbl	2(%rax,%rcx), %edi
	shll	$8, %edi
	movzbl	3(%rax,%rcx), %edx
	orl	%edi, %edx
	cmpl	%esi, %edx
	jg	LBB46_34
## %bb.30:
	movzbl	(%r10,%rax), %ecx
	shll	$8, %ecx
	movzbl	1(%r10,%rax), %edi
	orl	%ecx, %edi
	cmpl	%esi, %edi
	movl	$0, %ecx
	jl	LBB46_36
## %bb.31:
	shrl	%r8d
	addq	$14, %r13
	movl	%r8d, %ebx
	leaq	(%rbx,%rbx), %rcx
	leaq	(%rcx,%rcx,2), %r8
	leaq	(%r13,%r8), %rcx
	movzbl	2(%rax,%rcx), %edi
	shlq	$8, %rdi
	movzbl	3(%rax,%rcx), %ecx
	orq	%rdi, %rcx
	testw	%cx, %cx
	je	LBB46_35
## %bb.32:
	addq	%rcx, %r12
	subl	%edx, %esi
	addl	%esi, %esi
	movslq	%esi, %rcx
	addq	%r12, %rcx
	addq	%r11, %rcx
	addq	%r8, %rcx
	movzbl	16(%rax,%rcx), %edx
	shll	$8, %edx
	movzbl	17(%rax,%rcx), %ecx
	orl	%edx, %ecx
	jmp	LBB46_36
LBB46_34:
	xorl	%ecx, %ecx
	jmp	LBB46_36
LBB46_35:
	leaq	(%r13,%rbx,4), %rcx
	movzbl	2(%rax,%rcx), %edx
	shll	$8, %edx
	movzbl	3(%rax,%rcx), %ecx
	orl	%edx, %ecx
	addl	%esi, %ecx
LBB46_36:
	movzwl	%cx, %eax
LBB46_37:
	addq	$8, %rsp
	popq	%rbx
	popq	%r12
	popq	%r13
	popq	%r14
	popq	%r15
	popq	%rbp
	retq
LBB46_38:
	leaq	L___func__.stbtt_FindGlyphIndex(%rip), %rdi
	leaq	L_.str.2(%rip), %rsi
	leaq	L_.str.3(%rip), %rcx
	movl	$1514, %edx             ## imm = 0x5EA
	callq	___assert_rtn
LBB46_39:
	leaq	L___func__.stbtt_FindGlyphIndex(%rip), %rdi
	leaq	L_.str.2(%rip), %rsi
	leaq	L_.str.3(%rip), %rcx
	movl	$1585, %edx             ## imm = 0x631
	callq	___assert_rtn
	.cfi_endproc
	.p2align	2, 0x90
	.data_region jt32
.set L46_0_set_2, LBB46_2-LJTI46_0
.set L46_0_set_11, LBB46_11-LJTI46_0
.set L46_0_set_38, LBB46_38-LJTI46_0
.set L46_0_set_7, LBB46_7-LJTI46_0
.set L46_0_set_4, LBB46_4-LJTI46_0
LJTI46_0:
	.long	L46_0_set_2
	.long	L46_0_set_11
	.long	L46_0_set_38
	.long	L46_0_set_11
	.long	L46_0_set_7
	.long	L46_0_set_11
	.long	L46_0_set_4
	.end_data_region
                                        ## -- End function
	.globl	_stbtt_GetCodepointShape ## -- Begin function stbtt_GetCodepointShape
	.p2align	4, 0x90
_stbtt_GetCodepointShape:               ## @stbtt_GetCodepointShape
	.cfi_startproc
## %bb.0:
	pushq	%rbp
	.cfi_def_cfa_offset 16
	.cfi_offset %rbp, -16
	movq	%rsp, %rbp
	.cfi_def_cfa_register %rbp
	pushq	%r14
	pushq	%rbx
	.cfi_offset %rbx, -32
	.cfi_offset %r14, -24
	movq	%rdx, %r14
	movq	%rdi, %rbx
	callq	_stbtt_FindGlyphIndex
	movq	%rbx, %rdi
	movl	%eax, %esi
	movq	%r14, %rdx
	popq	%rbx
	popq	%r14
	popq	%rbp
	jmp	_stbtt_GetGlyphShape    ## TAILCALL
	.cfi_endproc
                                        ## -- End function
	.section	__TEXT,__literal4,4byte_literals
	.p2align	2               ## -- Begin function stbtt_GetGlyphShape
LCPI48_0:
	.long	947912704               ## float 6.10351563E-5
LCPI48_1:
	.long	1065353216              ## float 1
	.section	__TEXT,__text,regular,pure_instructions
	.globl	_stbtt_GetGlyphShape
	.p2align	4, 0x90
_stbtt_GetGlyphShape:                   ## @stbtt_GetGlyphShape
	.cfi_startproc
## %bb.0:
	pushq	%rbp
	.cfi_def_cfa_offset 16
	.cfi_offset %rbp, -16
	movq	%rsp, %rbp
	.cfi_def_cfa_register %rbp
	pushq	%r15
	pushq	%r14
	pushq	%r13
	pushq	%r12
	pushq	%rbx
	subq	$280, %rsp              ## imm = 0x118
	.cfi_offset %rbx, -56
	.cfi_offset %r12, -48
	.cfi_offset %r13, -40
	.cfi_offset %r14, -32
	.cfi_offset %r15, -24
	movq	%rdx, %r12
	movl	%esi, %r15d
	movq	%rdi, %rbx
	cmpl	$0, 76(%rdi)
	je	LBB48_1
## %bb.96:
	xorps	%xmm0, %xmm0
	movaps	%xmm0, -256(%rbp)
	movaps	%xmm0, -224(%rbp)
	movaps	%xmm0, -240(%rbp)
	movq	$0, -208(%rbp)
	movl	$1, -256(%rbp)
	movaps	%xmm0, -288(%rbp)
	movaps	%xmm0, -304(%rbp)
	movaps	%xmm0, -320(%rbp)
	movq	$0, -272(%rbp)
	leaq	-256(%rbp), %rdx
	movq	%rbx, %rdi
	movl	%r15d, %esi
	callq	_stbtt__run_charstring
	testl	%eax, %eax
	je	LBB48_100
## %bb.97:
	movslq	-208(%rbp), %rax
	movq	%rax, %rdi
	shlq	$4, %rdi
	subq	%rax, %rdi
	subq	%rax, %rdi
	callq	_malloc
	movq	%rax, (%r12)
	movq	%rax, -280(%rbp)
	leaq	-320(%rbp), %rdx
	movq	%rbx, %rdi
	movl	%r15d, %esi
	callq	_stbtt__run_charstring
	testl	%eax, %eax
	je	LBB48_100
## %bb.98:
	movl	-272(%rbp), %eax
	movq	%rax, %r15
	cmpl	-208(%rbp), %eax
	je	LBB48_102
## %bb.99:
	leaq	L___func__.stbtt__GetGlyphShapeT2(%rip), %rdi
	leaq	L_.str.2(%rip), %rsi
	leaq	L_.str.97(%rip), %rcx
	movl	$2278, %edx             ## imm = 0x8E6
	callq	___assert_rtn
LBB48_100:
	movq	$0, (%r12)
LBB48_101:
	xorl	%r15d, %r15d
	jmp	LBB48_102
LBB48_1:
	movq	8(%rbx), %r14
	movq	%rbx, %rdi
	movl	%r15d, %esi
	callq	_stbtt__GetGlyfOffset
	movq	$0, (%r12)
	xorl	%r15d, %r15d
	testl	%eax, %eax
	js	LBB48_102
## %bb.2:
	cltq
	leaq	(%r14,%rax), %rdi
	movzbl	(%r14,%rax), %ecx
	shll	$8, %ecx
	movzbl	1(%r14,%rax), %eax
	movswq	%cx, %r14
	orq	%rax, %r14
	testw	%r14w, %r14w
	movq	%r12, -192(%rbp)        ## 8-byte Spill
	jle	LBB48_59
## %bb.3:
	leaq	(%r14,%r14), %rdx
	movzbl	10(%rdi,%r14,2), %ebx
	movzbl	11(%rdi,%r14,2), %eax
	movq	%rax, -80(%rbp)         ## 8-byte Spill
	movzbl	8(%rdi,%r14,2), %eax
	shlq	$8, %rax
	movzbl	9(%rdi,%r14,2), %ecx
	orq	%rax, %rcx
	movq	%rcx, -144(%rbp)        ## 8-byte Spill
	movq	%rdx, -184(%rbp)        ## 8-byte Spill
	leal	1(%rdx,%rcx), %eax
	movl	%eax, %ecx
	shll	$4, %ecx
	subl	%eax, %ecx
	subl	%eax, %ecx
	movq	%rdi, %r12
	movslq	%ecx, %rdi
	callq	_malloc
	testq	%rax, %rax
	je	LBB48_102
## %bb.4:
	movq	%rax, %r13
	leaq	10(%r12,%r14,2), %rax
	addq	$10, %r12
	movq	%r12, -88(%rbp)         ## 8-byte Spill
	shlq	$8, %rbx
	addq	-80(%rbp), %rbx         ## 8-byte Folded Reload
	leaq	2(%rax,%rbx), %r9
	movq	-184(%rbp), %r12        ## 8-byte Reload
	movq	%r12, %r8
	shlq	$4, %r8
	subq	%r12, %r8
	subq	%r12, %r8
	leaq	12(%r13,%r8), %rsi
	movq	$-1, %rcx
	xorl	%edi, %edi
	xorl	%ebx, %ebx
	.p2align	4, 0x90
LBB48_5:                                ## =>This Inner Loop Header: Depth=1
	testb	%bl, %bl
	je	LBB48_6
## %bb.9:                               ##   in Loop: Header=BB48_5 Depth=1
	decb	%bl
	jmp	LBB48_10
	.p2align	4, 0x90
LBB48_6:                                ##   in Loop: Header=BB48_5 Depth=1
	movzbl	(%r9), %edi
	testb	$8, %dil
	jne	LBB48_8
## %bb.7:                               ##   in Loop: Header=BB48_5 Depth=1
	incq	%r9
	xorl	%ebx, %ebx
	jmp	LBB48_10
LBB48_8:                                ##   in Loop: Header=BB48_5 Depth=1
	movzbl	1(%r9), %ebx
	addq	$2, %r9
	.p2align	4, 0x90
LBB48_10:                               ##   in Loop: Header=BB48_5 Depth=1
	movb	%dil, (%rsi)
	incq	%rcx
	addq	$14, %rsi
	cmpq	%rcx, -144(%rbp)        ## 8-byte Folded Reload
	jne	LBB48_5
## %bb.11:
	leaq	(%r13,%r8), %rsi
	xorl	%r10d, %r10d
	movq	$-1, %rbx
	.p2align	4, 0x90
LBB48_12:                               ## =>This Inner Loop Header: Depth=1
	movzbl	12(%rsi), %edx
	testb	$2, %dl
	jne	LBB48_13
## %bb.14:                              ##   in Loop: Header=BB48_12 Depth=1
	testb	$16, %dl
	jne	LBB48_16
## %bb.15:                              ##   in Loop: Header=BB48_12 Depth=1
	movzbl	(%r9), %eax
	shll	$8, %eax
	movzbl	1(%r9), %edx
	cwtl
	orl	%edx, %eax
	addl	%eax, %r10d
	addq	$2, %r9
	jmp	LBB48_16
	.p2align	4, 0x90
LBB48_13:                               ##   in Loop: Header=BB48_12 Depth=1
	movzbl	(%r9), %edi
	incq	%r9
	movl	%edi, %eax
	negl	%eax
	testb	$16, %dl
	cmovnel	%edi, %eax
	addl	%eax, %r10d
LBB48_16:                               ##   in Loop: Header=BB48_12 Depth=1
	movw	%r10w, (%rsi)
	addq	$14, %rsi
	incq	%rbx
	cmpq	%rbx, %rcx
	jne	LBB48_12
## %bb.17:
	leaq	12(%r13,%r8), %rdx
	xorl	%r8d, %r8d
	movq	$-1, %rdi
	.p2align	4, 0x90
LBB48_18:                               ## =>This Inner Loop Header: Depth=1
	movzbl	(%rdx), %ebx
	testb	$4, %bl
	jne	LBB48_19
## %bb.20:                              ##   in Loop: Header=BB48_18 Depth=1
	testb	$32, %bl
	jne	LBB48_22
## %bb.21:                              ##   in Loop: Header=BB48_18 Depth=1
	movzbl	(%r9), %eax
	shll	$8, %eax
	movzbl	1(%r9), %esi
	cwtl
	orl	%esi, %eax
	addl	%eax, %r8d
	addq	$2, %r9
	jmp	LBB48_22
	.p2align	4, 0x90
LBB48_19:                               ##   in Loop: Header=BB48_18 Depth=1
	movzbl	(%r9), %esi
	incq	%r9
	movl	%esi, %eax
	negl	%eax
	testb	$32, %bl
	cmovnel	%esi, %eax
	addl	%eax, %r8d
LBB48_22:                               ##   in Loop: Header=BB48_18 Depth=1
	movw	%r8w, -10(%rdx)
	addq	$14, %rdx
	incq	%rdi
	cmpq	%rdi, %rcx
	jne	LBB48_18
## %bb.23:
	xorl	%r10d, %r10d
	xorl	%eax, %eax
	xorl	%ecx, %ecx
	movq	%rcx, -112(%rbp)        ## 8-byte Spill
	xorl	%esi, %esi
	xorl	%ecx, %ecx
	movq	%rcx, -128(%rbp)        ## 8-byte Spill
	xorl	%ecx, %ecx
	movq	%rcx, -80(%rbp)         ## 8-byte Spill
	movl	$0, -176(%rbp)          ## 4-byte Folded Spill
	movl	$0, -160(%rbp)          ## 4-byte Folded Spill
	xorl	%ecx, %ecx
	movq	%rcx, -56(%rbp)         ## 8-byte Spill
	xorl	%ecx, %ecx
	movq	%rcx, -48(%rbp)         ## 8-byte Spill
	xorl	%ebx, %ebx
	xorl	%edi, %edi
	.p2align	4, 0x90
LBB48_24:                               ## =>This Inner Loop Header: Depth=1
	movq	%r12, %r9
	leal	(%rax,%r12), %ecx
	movslq	%ecx, %r11
	movq	%r11, %rcx
	shlq	$4, %rcx
	subq	%r11, %rcx
	subq	%r11, %rcx
	movzbl	12(%r13,%rcx), %r14d
	movzwl	(%r13,%rcx), %r12d
	movzwl	2(%r13,%rcx), %edx
	movswl	%r12w, %r15d
	movswl	%dx, %r8d
	cmpl	%eax, %esi
	jne	LBB48_43
## %bb.25:                              ##   in Loop: Header=BB48_24 Depth=1
	testl	%eax, %eax
	je	LBB48_26
## %bb.27:                              ##   in Loop: Header=BB48_24 Depth=1
	testl	%ebx, %ebx
	je	LBB48_32
## %bb.28:                              ##   in Loop: Header=BB48_24 Depth=1
	testl	%edi, %edi
	je	LBB48_29
## %bb.30:                              ##   in Loop: Header=BB48_24 Depth=1
	movslq	%r10d, %rcx
	incl	%r10d
	movq	-48(%rbp), %rbx         ## 8-byte Reload
	movq	-80(%rbp), %rdx         ## 8-byte Reload
	leal	(%rdx,%rbx), %esi
	shrl	%esi
	movq	-56(%rbp), %r9          ## 8-byte Reload
	movq	-128(%rbp), %r12        ## 8-byte Reload
	leal	(%r12,%r9), %edi
	shrl	%edi
	movq	%rcx, %rdx
	shlq	$4, %rdx
	subq	%rcx, %rdx
	subq	%rcx, %rdx
	movb	$3, 12(%r13,%rdx)
	movw	%si, (%r13,%rdx)
	movw	%di, 2(%r13,%rdx)
	movq	-80(%rbp), %rdi         ## 8-byte Reload
	movw	%bx, 4(%r13,%rdx)
	movw	%r9w, 6(%r13,%rdx)
	movq	-112(%rbp), %rbx        ## 8-byte Reload
	jmp	LBB48_31
	.p2align	4, 0x90
LBB48_43:                               ##   in Loop: Header=BB48_24 Depth=1
	testb	$1, %r14b
	jne	LBB48_47
## %bb.44:                              ##   in Loop: Header=BB48_24 Depth=1
	testl	%edi, %edi
	je	LBB48_45
## %bb.46:                              ##   in Loop: Header=BB48_24 Depth=1
	movslq	%r10d, %rdi
	incl	%r10d
	movq	-48(%rbp), %r11         ## 8-byte Reload
	leal	(%r11,%r15), %edx
	shrl	%edx
	movl	%ebx, %r12d
	movq	-56(%rbp), %rbx         ## 8-byte Reload
	movl	%esi, %r14d
	leal	(%rbx,%r8), %esi
	shrl	%esi
	movq	%rdi, %rcx
	shlq	$4, %rcx
	subq	%rdi, %rcx
	subq	%rdi, %rcx
	movb	$3, 12(%r13,%rcx)
	movw	%dx, (%r13,%rcx)
	movw	%si, 2(%r13,%rcx)
	movl	%r14d, %esi
	movw	%r11w, 4(%r13,%rcx)
	movw	%bx, 6(%r13,%rcx)
	movl	%r12d, %ebx
LBB48_45:                               ##   in Loop: Header=BB48_24 Depth=1
	movl	$1, %edi
                                        ## kill: def $r15d killed $r15d killed $r15 def $r15
	movq	%r15, -48(%rbp)         ## 8-byte Spill
                                        ## kill: def $r8d killed $r8d killed $r8 def $r8
	movq	%r8, -56(%rbp)          ## 8-byte Spill
	movq	%r9, %r12
	jmp	LBB48_51
	.p2align	4, 0x90
LBB48_47:                               ##   in Loop: Header=BB48_24 Depth=1
	movl	%ebx, %r11d
	movl	%esi, %r8d
	movslq	%r10d, %rsi
	incl	%r10d
	movq	%rsi, %rcx
	shlq	$4, %rcx
	subq	%rsi, %rcx
	subq	%rsi, %rcx
	leaq	(%r13,%rcx), %rsi
	leaq	12(%r13,%rcx), %rbx
	testl	%edi, %edi
	jne	LBB48_48
## %bb.49:                              ##   in Loop: Header=BB48_24 Depth=1
	movb	$2, (%rbx)
	movw	%r12w, (%rsi)
	movw	%dx, 2(%r13,%rcx)
	movl	$0, 4(%r13,%rcx)
	jmp	LBB48_50
LBB48_26:                               ##   in Loop: Header=BB48_24 Depth=1
	movq	%r9, %r12
	movq	-112(%rbp), %rbx        ## 8-byte Reload
	jmp	LBB48_37
LBB48_32:                               ##   in Loop: Header=BB48_24 Depth=1
	movq	%r9, %r12
	movslq	%r10d, %rsi
	incl	%r10d
	movq	%rsi, %rdx
	shlq	$4, %rdx
	subq	%rsi, %rdx
	subq	%rsi, %rdx
	leaq	(%r13,%rdx), %rcx
	leaq	12(%r13,%rdx), %rbx
	testl	%edi, %edi
	je	LBB48_34
## %bb.33:                              ##   in Loop: Header=BB48_24 Depth=1
	movb	$3, (%rbx)
	movl	-160(%rbp), %edi        ## 4-byte Reload
	movw	%di, (%rcx)
	movl	-176(%rbp), %ecx        ## 4-byte Reload
	movw	%cx, 2(%r13,%rdx)
	movq	-48(%rbp), %rcx         ## 8-byte Reload
	movw	%cx, 4(%r13,%rdx)
	movq	-56(%rbp), %rcx         ## 8-byte Reload
	movl	%ecx, %edx
	jmp	LBB48_35
LBB48_48:                               ##   in Loop: Header=BB48_24 Depth=1
	movb	$3, (%rbx)
	movw	%r12w, (%rsi)
	movw	%dx, 2(%r13,%rcx)
	movq	-48(%rbp), %rdx         ## 8-byte Reload
	movw	%dx, 4(%r13,%rcx)
	movq	-56(%rbp), %rdx         ## 8-byte Reload
	movw	%dx, 6(%r13,%rcx)
LBB48_50:                               ##   in Loop: Header=BB48_24 Depth=1
	xorl	%edi, %edi
	movq	%r9, %r12
	movl	%r8d, %esi
	movl	%r11d, %ebx
	jmp	LBB48_51
LBB48_29:                               ##   in Loop: Header=BB48_24 Depth=1
	movq	-112(%rbp), %rbx        ## 8-byte Reload
	movq	-128(%rbp), %r12        ## 8-byte Reload
	movq	-80(%rbp), %rdi         ## 8-byte Reload
LBB48_31:                               ##   in Loop: Header=BB48_24 Depth=1
	movslq	%r10d, %rsi
	incl	%r10d
	movq	%rsi, %rcx
	shlq	$4, %rcx
	subq	%rsi, %rcx
	subq	%rsi, %rcx
	movb	$3, 12(%r13,%rcx)
	movl	-160(%rbp), %edx        ## 4-byte Reload
	movw	%dx, (%r13,%rcx)
	movl	-176(%rbp), %edx        ## 4-byte Reload
	movw	%dx, 2(%r13,%rcx)
	movw	%di, 4(%r13,%rcx)
	movl	%r12d, %edx
	movq	-184(%rbp), %r12        ## 8-byte Reload
	jmp	LBB48_36
LBB48_34:                               ##   in Loop: Header=BB48_24 Depth=1
	movb	$2, (%rbx)
	movl	-160(%rbp), %edi        ## 4-byte Reload
	movw	%di, (%rcx)
	movl	-176(%rbp), %ecx        ## 4-byte Reload
	movw	%cx, 2(%r13,%rdx)
	movw	$0, 4(%r13,%rdx)
	xorl	%edx, %edx
LBB48_35:                               ##   in Loop: Header=BB48_24 Depth=1
	movq	-112(%rbp), %rbx        ## 8-byte Reload
LBB48_36:                               ##   in Loop: Header=BB48_24 Depth=1
	movq	%rsi, %rcx
	shlq	$4, %rcx
	subq	%rsi, %rcx
	subq	%rsi, %rcx
	movw	%dx, 6(%r13,%rcx)
LBB48_37:                               ##   in Loop: Header=BB48_24 Depth=1
	andl	$1, %r14d
	testb	%r14b, %r14b
	je	LBB48_39
## %bb.38:                              ##   in Loop: Header=BB48_24 Depth=1
	movl	%r15d, %edi
	movl	%r8d, %esi
	movq	-80(%rbp), %r15         ## 8-byte Reload
                                        ## kill: def $r15d killed $r15d killed $r15 def $r15
	movq	-128(%rbp), %r8         ## 8-byte Reload
                                        ## kill: def $r8d killed $r8d killed $r8 def $r8
	jmp	LBB48_42
LBB48_39:                               ##   in Loop: Header=BB48_24 Depth=1
	incq	%r11
	movq	%r11, %rdx
	shlq	$4, %rdx
	subq	%r11, %rdx
	subq	%r11, %rdx
	movswl	(%r13,%rdx), %edi
	testb	$1, 12(%r13,%rdx)
	jne	LBB48_41
## %bb.40:                              ##   in Loop: Header=BB48_24 Depth=1
	addl	%r15d, %edi
	sarl	%edi
	movswl	2(%r13,%rdx), %esi
	addl	%r8d, %esi
	sarl	%esi
	jmp	LBB48_42
LBB48_41:                               ##   in Loop: Header=BB48_24 Depth=1
	movswl	2(%r13,%rdx), %esi
	incl	%eax
	.p2align	4, 0x90
LBB48_42:                               ##   in Loop: Header=BB48_24 Depth=1
	xorl	$1, %r14d
	movslq	%r10d, %rcx
	incl	%r10d
	movq	%rcx, %rdx
	shlq	$4, %rdx
	subq	%rcx, %rdx
	subq	%rcx, %rdx
	movb	$1, 12(%r13,%rdx)
	movl	%edi, -160(%rbp)        ## 4-byte Spill
	movw	%di, (%r13,%rdx)
	movl	%esi, -176(%rbp)        ## 4-byte Spill
	movw	%si, 2(%r13,%rdx)
	movl	$0, 4(%r13,%rdx)
	movslq	%ebx, %rbx
	movq	-88(%rbp), %rdx         ## 8-byte Reload
	movzbl	(%rdx,%rbx,2), %ecx
	shll	$8, %ecx
	movzbl	1(%rdx,%rbx,2), %edx
	leal	1(%rcx,%rdx), %esi
	incl	%ebx
	movq	%rbx, -112(%rbp)        ## 8-byte Spill
	xorl	%edi, %edi
	movl	%r14d, %ebx
                                        ## kill: def $r15d killed $r15d killed $r15 def $r15
	movq	%r15, -80(%rbp)         ## 8-byte Spill
                                        ## kill: def $r8d killed $r8d killed $r8 def $r8
	movq	%r8, -128(%rbp)         ## 8-byte Spill
LBB48_51:                               ##   in Loop: Header=BB48_24 Depth=1
	leal	1(%rax), %ecx
	cmpl	-144(%rbp), %eax        ## 4-byte Folded Reload
	movl	%ecx, %eax
	jl	LBB48_24
## %bb.52:
	testl	%ebx, %ebx
	je	LBB48_57
## %bb.53:
	testl	%edi, %edi
	je	LBB48_54
## %bb.55:
	movslq	%r10d, %rax
	incl	%r10d
	movq	-48(%rbp), %r8          ## 8-byte Reload
	movq	-80(%rbp), %r9          ## 8-byte Reload
	leal	(%r9,%r8), %ecx
	shrl	%ecx
	movq	-56(%rbp), %rdi         ## 8-byte Reload
	movq	-128(%rbp), %rbx        ## 8-byte Reload
	leal	(%rbx,%rdi), %edx
	shrl	%edx
	movq	%rax, %rsi
	shlq	$4, %rsi
	subq	%rax, %rsi
	subq	%rax, %rsi
	movb	$3, 12(%r13,%rsi)
	movw	%cx, (%r13,%rsi)
	movw	%dx, 2(%r13,%rsi)
	movw	%r8w, 4(%r13,%rsi)
	movw	%di, 6(%r13,%rsi)
	movl	-176(%rbp), %edx        ## 4-byte Reload
	movl	-160(%rbp), %esi        ## 4-byte Reload
	jmp	LBB48_56
LBB48_59:
	testw	%r14w, %r14w
	js	LBB48_61
## %bb.60:
	xorl	%r10d, %r10d
	xorl	%r13d, %r13d
	jmp	LBB48_95
LBB48_57:
	movslq	%r10d, %rcx
	incl	%r10d
	movq	%rcx, %rax
	shlq	$4, %rax
	subq	%rcx, %rax
	subq	%rcx, %rax
	leaq	12(%r13,%rax), %rdx
	leaq	(%r13,%rax), %rcx
	testl	%edi, %edi
	je	LBB48_94
## %bb.58:
	movb	$3, (%rdx)
	movl	-160(%rbp), %edx        ## 4-byte Reload
	movw	%dx, (%rcx)
	movl	-176(%rbp), %ecx        ## 4-byte Reload
	movw	%cx, 2(%r13,%rax)
	movq	-48(%rbp), %rcx         ## 8-byte Reload
	movw	%cx, 4(%r13,%rax)
	movq	-56(%rbp), %rcx         ## 8-byte Reload
	movw	%cx, 6(%r13,%rax)
	jmp	LBB48_95
LBB48_61:
	movq	%rbx, -48(%rbp)         ## 8-byte Spill
	addq	$10, %rdi
	xorl	%r13d, %r13d
	xorl	%r14d, %r14d
	.p2align	4, 0x90
LBB48_62:                               ## =>This Loop Header: Depth=1
                                        ##     Child Loop BB48_79 Depth 2
                                        ##     Child Loop BB48_82 Depth 2
	movq	$0, -256(%rbp)
	movzbl	1(%rdi), %ebx
	testb	$2, %bl
	je	LBB48_65
## %bb.63:                              ##   in Loop: Header=BB48_62 Depth=1
	movzbl	2(%rdi), %esi
	shll	$8, %esi
	movzbl	3(%rdi), %eax
	movzbl	4(%rdi), %ecx
	testb	$1, %bl
	jne	LBB48_64
## %bb.66:                              ##   in Loop: Header=BB48_62 Depth=1
	movsbl	%cl, %ecx
	xorps	%xmm0, %xmm0
	cvtsi2ssl	%ecx, %xmm0
	movsbl	5(%rdi), %ecx
	xorps	%xmm1, %xmm1
	cvtsi2ssl	%ecx, %xmm1
	movl	$6, %ecx
	jmp	LBB48_67
	.p2align	4, 0x90
LBB48_64:                               ##   in Loop: Header=BB48_62 Depth=1
	movzwl	%cx, %ecx
	shll	$8, %ecx
	movzbl	5(%rdi), %edx
	orl	%ecx, %edx
	movswl	%dx, %ecx
	xorps	%xmm0, %xmm0
	cvtsi2ssl	%ecx, %xmm0
	movzwl	6(%rdi), %ecx
	rolw	$8, %cx
	movswl	%cx, %ecx
	xorps	%xmm1, %xmm1
	cvtsi2ssl	%ecx, %xmm1
	movl	$8, %ecx
LBB48_67:                               ##   in Loop: Header=BB48_62 Depth=1
	orl	%eax, %esi
	addq	%rcx, %rdi
	testb	$8, %bl
	movaps	%xmm0, -176(%rbp)       ## 16-byte Spill
	movaps	%xmm1, -160(%rbp)       ## 16-byte Spill
	jne	LBB48_68
## %bb.69:                              ##   in Loop: Header=BB48_62 Depth=1
	testb	$64, %bl
	jne	LBB48_70
## %bb.71:                              ##   in Loop: Header=BB48_62 Depth=1
	testb	%bl, %bl
	js	LBB48_73
## %bb.72:                              ##   in Loop: Header=BB48_62 Depth=1
	xorps	%xmm2, %xmm2
	movaps	%xmm2, -80(%rbp)        ## 16-byte Spill
	movq	%rdi, -88(%rbp)         ## 8-byte Spill
	movss	LCPI48_1(%rip), %xmm0   ## xmm0 = mem[0],zero,zero,zero
	movaps	%xmm0, %xmm1
	movaps	%xmm0, -128(%rbp)       ## 16-byte Spill
	xorps	%xmm1, %xmm1
	movaps	%xmm1, -112(%rbp)       ## 16-byte Spill
	movaps	%xmm0, -144(%rbp)       ## 16-byte Spill
	jmp	LBB48_74
	.p2align	4, 0x90
LBB48_68:                               ##   in Loop: Header=BB48_62 Depth=1
	movzwl	(%rdi), %eax
	rolw	$8, %ax
	cwtl
	xorps	%xmm1, %xmm1
	cvtsi2ssl	%eax, %xmm1
	mulss	LCPI48_0(%rip), %xmm1
	addq	$2, %rdi
	movq	%rdi, -88(%rbp)         ## 8-byte Spill
	xorps	%xmm0, %xmm0
	movaps	%xmm0, -80(%rbp)        ## 16-byte Spill
	xorps	%xmm0, %xmm0
	movaps	%xmm0, -112(%rbp)       ## 16-byte Spill
	movaps	%xmm1, -128(%rbp)       ## 16-byte Spill
	movaps	%xmm1, -144(%rbp)       ## 16-byte Spill
	jmp	LBB48_74
LBB48_70:                               ##   in Loop: Header=BB48_62 Depth=1
	movzwl	(%rdi), %eax
	rolw	$8, %ax
	cwtl
	xorps	%xmm1, %xmm1
	cvtsi2ssl	%eax, %xmm1
	movzwl	2(%rdi), %eax
	movss	LCPI48_0(%rip), %xmm0   ## xmm0 = mem[0],zero,zero,zero
	mulss	%xmm0, %xmm1
	movaps	%xmm1, -144(%rbp)       ## 16-byte Spill
	rolw	$8, %ax
	cwtl
	xorps	%xmm1, %xmm1
	cvtsi2ssl	%eax, %xmm1
	mulss	%xmm0, %xmm1
	movaps	%xmm1, -128(%rbp)       ## 16-byte Spill
	addq	$4, %rdi
	movq	%rdi, -88(%rbp)         ## 8-byte Spill
	xorps	%xmm0, %xmm0
	movaps	%xmm0, -80(%rbp)        ## 16-byte Spill
	xorps	%xmm0, %xmm0
	movaps	%xmm0, -112(%rbp)       ## 16-byte Spill
	jmp	LBB48_74
LBB48_73:                               ##   in Loop: Header=BB48_62 Depth=1
	movzwl	(%rdi), %eax
	rolw	$8, %ax
	cwtl
	xorps	%xmm1, %xmm1
	cvtsi2ssl	%eax, %xmm1
	movzwl	2(%rdi), %eax
	rolw	$8, %ax
	cwtl
	xorps	%xmm3, %xmm3
	cvtsi2ssl	%eax, %xmm3
	movzwl	4(%rdi), %eax
	rolw	$8, %ax
	cwtl
	xorps	%xmm2, %xmm2
	cvtsi2ssl	%eax, %xmm2
	movss	LCPI48_0(%rip), %xmm0   ## xmm0 = mem[0],zero,zero,zero
	mulss	%xmm0, %xmm1
	movaps	%xmm1, -144(%rbp)       ## 16-byte Spill
	movzwl	6(%rdi), %eax
	rolw	$8, %ax
	cwtl
	xorps	%xmm1, %xmm1
	cvtsi2ssl	%eax, %xmm1
	mulss	%xmm0, %xmm3
	movaps	%xmm3, -112(%rbp)       ## 16-byte Spill
	mulss	%xmm0, %xmm2
	movaps	%xmm2, -80(%rbp)        ## 16-byte Spill
	mulss	%xmm0, %xmm1
	movaps	%xmm1, -128(%rbp)       ## 16-byte Spill
	addq	$8, %rdi
	movq	%rdi, -88(%rbp)         ## 8-byte Spill
	.p2align	4, 0x90
LBB48_74:                               ##   in Loop: Header=BB48_62 Depth=1
	movq	-48(%rbp), %rdi         ## 8-byte Reload
	leaq	-256(%rbp), %rdx
	callq	_stbtt_GetGlyphShape
                                        ## kill: def $eax killed $eax def $rax
	testl	%eax, %eax
	jle	LBB48_75
## %bb.76:                              ##   in Loop: Header=BB48_62 Depth=1
	movl	%ebx, -56(%rbp)         ## 4-byte Spill
	movaps	-144(%rbp), %xmm6       ## 16-byte Reload
	movaps	%xmm6, %xmm0
	mulss	%xmm6, %xmm0
	movaps	-112(%rbp), %xmm12      ## 16-byte Reload
	movaps	%xmm12, %xmm1
	mulss	%xmm12, %xmm1
	addss	%xmm0, %xmm1
	sqrtss	%xmm1, %xmm14
	movaps	-80(%rbp), %xmm7        ## 16-byte Reload
	movaps	%xmm7, %xmm1
	mulss	%xmm7, %xmm1
	movaps	-128(%rbp), %xmm13      ## 16-byte Reload
	movaps	%xmm13, %xmm2
	mulss	%xmm13, %xmm2
	addss	%xmm1, %xmm2
	sqrtss	%xmm2, %xmm15
	movq	-256(%rbp), %r8
	movl	%eax, %ebx
	cmpl	$5, %eax
	jae	LBB48_78
## %bb.77:                              ##   in Loop: Header=BB48_62 Depth=1
	xorl	%ecx, %ecx
	movaps	-176(%rbp), %xmm0       ## 16-byte Reload
	movaps	-160(%rbp), %xmm1       ## 16-byte Reload
	jmp	LBB48_81
	.p2align	4, 0x90
LBB48_75:                               ##   in Loop: Header=BB48_62 Depth=1
	movl	%r14d, %r10d
	jmp	LBB48_93
	.p2align	4, 0x90
LBB48_78:                               ##   in Loop: Header=BB48_62 Depth=1
	movl	%ebx, %edx
	andl	$3, %edx
	testq	%rdx, %rdx
	movl	$4, %ecx
	cmoveq	%rcx, %rdx
	movq	%rbx, %rcx
	subq	%rdx, %rcx
	movaps	%xmm6, %xmm8
	shufps	$0, %xmm6, %xmm8        ## xmm8 = xmm8[0,0],xmm6[0,0]
	movaps	%xmm7, %xmm9
	shufps	$0, %xmm7, %xmm9        ## xmm9 = xmm9[0,0],xmm7[0,0]
	movaps	-176(%rbp), %xmm0       ## 16-byte Reload
	movaps	%xmm0, %xmm10
	shufps	$0, %xmm0, %xmm10       ## xmm10 = xmm10[0,0],xmm0[0,0]
	movaps	%xmm14, %xmm11
	shufps	$0, %xmm14, %xmm11      ## xmm11 = xmm11[0,0],xmm14[0,0]
	shufps	$0, %xmm12, %xmm12      ## xmm12 = xmm12[0,0,0,0]
	shufps	$0, %xmm13, %xmm13      ## xmm13 = xmm13[0,0,0,0]
	movaps	-160(%rbp), %xmm1       ## 16-byte Reload
	movaps	%xmm1, %xmm2
	shufps	$0, %xmm1, %xmm2        ## xmm2 = xmm2[0,0],xmm1[0,0]
	movaps	%xmm15, %xmm3
	shufps	$0, %xmm15, %xmm3       ## xmm3 = xmm3[0,0],xmm15[0,0]
	leaq	48(%r8), %rdx
	movq	%rcx, %rsi
	.p2align	4, 0x90
LBB48_79:                               ##   Parent Loop BB48_62 Depth=1
                                        ## =>  This Inner Loop Header: Depth=2
	movzwl	-48(%rdx), %edi
	movd	%edi, %xmm4
	pinsrw	$1, -34(%rdx), %xmm4
	pinsrw	$2, -20(%rdx), %xmm4
	pinsrw	$3, -6(%rdx), %xmm4
	pmovsxwd	%xmm4, %xmm4
	cvtdq2ps	%xmm4, %xmm4
	movaps	%xmm8, %xmm5
	mulps	%xmm4, %xmm5
	movzwl	-46(%rdx), %edi
	movd	%edi, %xmm6
	pinsrw	$1, -32(%rdx), %xmm6
	pinsrw	$2, -18(%rdx), %xmm6
	pinsrw	$3, -4(%rdx), %xmm6
	pmovsxwd	%xmm6, %xmm6
	cvtdq2ps	%xmm6, %xmm6
	movaps	%xmm9, %xmm7
	mulps	%xmm6, %xmm7
	addps	%xmm5, %xmm7
	addps	%xmm10, %xmm7
	mulps	%xmm11, %xmm7
	cvttps2dq	%xmm7, %xmm5
	pextrw	$0, %xmm5, -48(%rdx)
	pextrw	$2, %xmm5, -34(%rdx)
	pextrw	$4, %xmm5, -20(%rdx)
	pextrw	$6, %xmm5, -6(%rdx)
	mulps	%xmm12, %xmm4
	mulps	%xmm13, %xmm6
	addps	%xmm4, %xmm6
	addps	%xmm2, %xmm6
	mulps	%xmm3, %xmm6
	cvttps2dq	%xmm6, %xmm4
	pextrw	$0, %xmm4, -46(%rdx)
	pextrw	$2, %xmm4, -32(%rdx)
	pextrw	$4, %xmm4, -18(%rdx)
	pextrw	$6, %xmm4, -4(%rdx)
	movzwl	-44(%rdx), %edi
	movd	%edi, %xmm4
	pinsrw	$1, -30(%rdx), %xmm4
	pinsrw	$2, -16(%rdx), %xmm4
	pinsrw	$3, -2(%rdx), %xmm4
	pmovsxwd	%xmm4, %xmm4
	cvtdq2ps	%xmm4, %xmm4
	movaps	%xmm8, %xmm5
	mulps	%xmm4, %xmm5
	movzwl	-42(%rdx), %edi
	movd	%edi, %xmm6
	pinsrw	$1, -28(%rdx), %xmm6
	pinsrw	$2, -14(%rdx), %xmm6
	pinsrw	$3, (%rdx), %xmm6
	pmovsxwd	%xmm6, %xmm6
	cvtdq2ps	%xmm6, %xmm6
	movaps	%xmm9, %xmm7
	mulps	%xmm6, %xmm7
	addps	%xmm5, %xmm7
	addps	%xmm10, %xmm7
	mulps	%xmm11, %xmm7
	cvttps2dq	%xmm7, %xmm5
	pextrw	$0, %xmm5, -44(%rdx)
	pextrw	$2, %xmm5, -30(%rdx)
	pextrw	$4, %xmm5, -16(%rdx)
	pextrw	$6, %xmm5, -2(%rdx)
	mulps	%xmm12, %xmm4
	mulps	%xmm13, %xmm6
	addps	%xmm4, %xmm6
	addps	%xmm2, %xmm6
	mulps	%xmm3, %xmm6
	cvttps2dq	%xmm6, %xmm4
	pextrw	$0, %xmm4, -42(%rdx)
	pextrw	$2, %xmm4, -28(%rdx)
	pextrw	$4, %xmm4, -14(%rdx)
	pextrw	$6, %xmm4, (%rdx)
	addq	$56, %rdx
	addq	$-4, %rsi
	jne	LBB48_79
## %bb.80:                              ##   in Loop: Header=BB48_62 Depth=1
	movaps	-144(%rbp), %xmm6       ## 16-byte Reload
	movaps	-80(%rbp), %xmm7        ## 16-byte Reload
	movaps	-128(%rbp), %xmm13      ## 16-byte Reload
	movaps	-112(%rbp), %xmm12      ## 16-byte Reload
LBB48_81:                               ##   in Loop: Header=BB48_62 Depth=1
	movq	%rcx, %rdx
	shlq	$4, %rdx
	subq	%rcx, %rdx
	subq	%rcx, %rdx
	movq	%r8, -144(%rbp)         ## 8-byte Spill
	leaq	6(%r8,%rdx), %rdx
	subq	%rcx, %rbx
	.p2align	4, 0x90
LBB48_82:                               ##   Parent Loop BB48_62 Depth=1
                                        ## =>  This Inner Loop Header: Depth=2
	movswl	-6(%rdx), %ecx
	xorps	%xmm2, %xmm2
	cvtsi2ssl	%ecx, %xmm2
	movswl	-4(%rdx), %ecx
	movaps	%xmm6, %xmm3
	xorps	%xmm4, %xmm4
	cvtsi2ssl	%ecx, %xmm4
	mulss	%xmm2, %xmm3
	movaps	%xmm7, %xmm5
	mulss	%xmm4, %xmm5
	addss	%xmm3, %xmm5
	addss	%xmm0, %xmm5
	mulss	%xmm14, %xmm5
	cvttss2si	%xmm5, %ecx
	movw	%cx, -6(%rdx)
	mulss	%xmm12, %xmm2
	mulss	%xmm13, %xmm4
	addss	%xmm2, %xmm4
	addss	%xmm1, %xmm4
	mulss	%xmm15, %xmm4
	cvttss2si	%xmm4, %ecx
	movw	%cx, -4(%rdx)
	movswl	-2(%rdx), %ecx
	xorps	%xmm2, %xmm2
	cvtsi2ssl	%ecx, %xmm2
	movswl	(%rdx), %ecx
	xorps	%xmm3, %xmm3
	cvtsi2ssl	%ecx, %xmm3
	movaps	%xmm6, %xmm4
	mulss	%xmm2, %xmm4
	movaps	%xmm7, %xmm5
	mulss	%xmm3, %xmm5
	addss	%xmm4, %xmm5
	addss	%xmm0, %xmm5
	mulss	%xmm14, %xmm5
	cvttss2si	%xmm5, %ecx
	mulss	%xmm12, %xmm2
	mulss	%xmm13, %xmm3
	addss	%xmm2, %xmm3
	addss	%xmm1, %xmm3
	mulss	%xmm15, %xmm3
	cvttss2si	%xmm3, %esi
	movw	%cx, -2(%rdx)
	movw	%si, (%rdx)
	addq	$14, %rdx
	decq	%rbx
	jne	LBB48_82
## %bb.83:                              ##   in Loop: Header=BB48_62 Depth=1
	movq	%rax, %r12
	leal	(%rax,%r14), %eax
	movq	%rax, %r15
	cltq
	movq	%rax, %rdi
	shlq	$4, %rdi
	subq	%rax, %rdi
	subq	%rax, %rdi
	callq	_malloc
	testq	%rax, %rax
	je	LBB48_84
## %bb.87:                              ##   in Loop: Header=BB48_62 Depth=1
	movq	%rax, %rbx
	movq	%r14, %rax
	movslq	%eax, %r14
	testl	%eax, %eax
	jle	LBB48_90
## %bb.88:                              ##   in Loop: Header=BB48_62 Depth=1
	testq	%r13, %r13
	je	LBB48_90
## %bb.89:                              ##   in Loop: Header=BB48_62 Depth=1
	movq	%r14, %rdx
	shlq	$4, %rdx
	subq	%r14, %rdx
	subq	%r14, %rdx
	movq	%rbx, %rdi
	movq	%r13, %rsi
	callq	_memcpy
LBB48_90:                               ##   in Loop: Header=BB48_62 Depth=1
	movq	%r14, %rax
	shlq	$4, %rax
	subq	%r14, %rax
	subq	%r14, %rax
	movq	%rbx, %rdi
	addq	%rax, %rdi
	movslq	%r12d, %rax
	movq	%rax, %rdx
	shlq	$4, %rdx
	subq	%rax, %rdx
	subq	%rax, %rdx
	movq	-144(%rbp), %rsi        ## 8-byte Reload
	callq	_memcpy
	testq	%r13, %r13
	je	LBB48_92
## %bb.91:                              ##   in Loop: Header=BB48_62 Depth=1
	movq	%r13, %rdi
	callq	_free
LBB48_92:                               ##   in Loop: Header=BB48_62 Depth=1
	movq	-144(%rbp), %rdi        ## 8-byte Reload
	callq	_free
	movq	%rbx, %r13
	movq	%r15, %r10
	movl	%r10d, %r14d
	movl	-56(%rbp), %ebx         ## 4-byte Reload
LBB48_93:                               ##   in Loop: Header=BB48_62 Depth=1
	testb	$32, %bl
	movq	-88(%rbp), %rdi         ## 8-byte Reload
	jne	LBB48_62
	jmp	LBB48_95
LBB48_54:
	movl	-176(%rbp), %edx        ## 4-byte Reload
	movl	-160(%rbp), %esi        ## 4-byte Reload
	movq	-128(%rbp), %rbx        ## 8-byte Reload
	movq	-80(%rbp), %r9          ## 8-byte Reload
LBB48_56:
	movslq	%r10d, %rax
	incl	%r10d
	movq	%rax, %rcx
	shlq	$4, %rcx
	subq	%rax, %rcx
	subq	%rax, %rcx
	movb	$3, 12(%r13,%rcx)
	movw	%si, (%r13,%rcx)
	movw	%dx, 2(%r13,%rcx)
	movw	%r9w, 4(%r13,%rcx)
	movw	%bx, 6(%r13,%rcx)
LBB48_95:
	movq	%r10, %r15
	movq	-192(%rbp), %rax        ## 8-byte Reload
	movq	%r13, (%rax)
LBB48_102:
	movl	%r15d, %eax
	addq	$280, %rsp              ## imm = 0x118
	popq	%rbx
	popq	%r12
	popq	%r13
	popq	%r14
	popq	%r15
	popq	%rbp
	retq
LBB48_94:
	movb	$2, (%rdx)
	movl	-160(%rbp), %edx        ## 4-byte Reload
	movw	%dx, (%rcx)
	movl	-176(%rbp), %ecx        ## 4-byte Reload
	movw	%cx, 2(%r13,%rax)
	movl	$0, 4(%r13,%rax)
	jmp	LBB48_95
LBB48_84:
	testq	%r13, %r13
	je	LBB48_86
## %bb.85:
	movq	%r13, %rdi
	callq	_free
LBB48_86:
	movq	-144(%rbp), %rdi        ## 8-byte Reload
	callq	_free
	jmp	LBB48_101
LBB48_65:
	leaq	L___func__.stbtt__GetGlyphShapeTT(%rip), %rdi
	leaq	L_.str.2(%rip), %rsi
	leaq	L_.str.3(%rip), %rcx
	movl	$1838, %edx             ## imm = 0x72E
	callq	___assert_rtn
	.cfi_endproc
                                        ## -- End function
	.globl	_stbtt_GetGlyphBox      ## -- Begin function stbtt_GetGlyphBox
	.p2align	4, 0x90
_stbtt_GetGlyphBox:                     ## @stbtt_GetGlyphBox
	.cfi_startproc
## %bb.0:
	pushq	%rbp
	.cfi_def_cfa_offset 16
	.cfi_offset %rbp, -16
	movq	%rsp, %rbp
	.cfi_def_cfa_register %rbp
	pushq	%r15
	pushq	%r14
	pushq	%r13
	pushq	%r12
	pushq	%rbx
	subq	$56, %rsp
	.cfi_offset %rbx, -56
	.cfi_offset %r12, -48
	.cfi_offset %r13, -40
	.cfi_offset %r14, -32
	.cfi_offset %r15, -24
	movq	%r9, %r14
	movq	%r8, %r15
	movq	%rcx, %r12
	movq	%rdx, %r13
	movq	%rdi, %rbx
	cmpl	$0, 76(%rdi)
	je	LBB49_18
## %bb.1:
	xorps	%xmm0, %xmm0
	movaps	%xmm0, -96(%rbp)
	movaps	%xmm0, -64(%rbp)
	movaps	%xmm0, -80(%rbp)
	movq	$0, -48(%rbp)
	movl	$1, -96(%rbp)
	leaq	-96(%rbp), %rdx
	movq	%rbx, %rdi
	callq	_stbtt__run_charstring
	testq	%r13, %r13
	je	LBB49_5
## %bb.2:
	movl	%eax, %ecx
	testl	%eax, %eax
	je	LBB49_4
## %bb.3:
	movl	-72(%rbp), %ecx
LBB49_4:
	movl	%ecx, (%r13)
LBB49_5:
	testq	%r12, %r12
	je	LBB49_9
## %bb.6:
	movl	%eax, %ecx
	testl	%eax, %eax
	je	LBB49_8
## %bb.7:
	movl	-64(%rbp), %ecx
LBB49_8:
	movl	%ecx, (%r12)
LBB49_9:
	testq	%r15, %r15
	je	LBB49_13
## %bb.10:
	movl	%eax, %ecx
	testl	%eax, %eax
	je	LBB49_12
## %bb.11:
	movl	-68(%rbp), %ecx
LBB49_12:
	movl	%ecx, (%r15)
LBB49_13:
	testq	%r14, %r14
	je	LBB49_17
## %bb.14:
	testl	%eax, %eax
	je	LBB49_16
## %bb.15:
	movl	-60(%rbp), %eax
LBB49_16:
	movl	%eax, (%r14)
LBB49_17:
	movl	$1, %ecx
LBB49_28:
	movl	%ecx, %eax
	addq	$56, %rsp
	popq	%rbx
	popq	%r12
	popq	%r13
	popq	%r14
	popq	%r15
	popq	%rbp
	retq
LBB49_18:
	movq	%rbx, %rdi
	callq	_stbtt__GetGlyfOffset
	testl	%eax, %eax
	js	LBB49_19
## %bb.20:
	testq	%r13, %r13
	je	LBB49_22
## %bb.21:
	movq	8(%rbx), %rcx
	movslq	%eax, %rdx
	movzbl	2(%rcx,%rdx), %esi
	shll	$8, %esi
	movzbl	3(%rcx,%rdx), %ecx
	movswl	%si, %edx
	orl	%ecx, %edx
	movl	%edx, (%r13)
LBB49_22:
	testq	%r12, %r12
	je	LBB49_24
## %bb.23:
	movq	8(%rbx), %rcx
	movslq	%eax, %rdx
	movzbl	4(%rcx,%rdx), %esi
	shll	$8, %esi
	movzbl	5(%rcx,%rdx), %ecx
	movswl	%si, %edx
	orl	%ecx, %edx
	movl	%edx, (%r12)
LBB49_24:
	testq	%r15, %r15
	je	LBB49_26
## %bb.25:
	movq	8(%rbx), %rcx
	movslq	%eax, %rdx
	movzbl	6(%rcx,%rdx), %esi
	shll	$8, %esi
	movzbl	7(%rcx,%rdx), %ecx
	movswl	%si, %edx
	orl	%ecx, %edx
	movl	%edx, (%r15)
LBB49_26:
	movl	$1, %ecx
	testq	%r14, %r14
	je	LBB49_28
## %bb.27:
	movq	8(%rbx), %rdx
	cltq
	movzbl	8(%rdx,%rax), %esi
	shll	$8, %esi
	movzbl	9(%rdx,%rax), %eax
	movswl	%si, %edx
	orl	%eax, %edx
	movl	%edx, (%r14)
	jmp	LBB49_28
LBB49_19:
	xorl	%ecx, %ecx
	jmp	LBB49_28
	.cfi_endproc
                                        ## -- End function
	.p2align	4, 0x90         ## -- Begin function stbtt__GetGlyfOffset
_stbtt__GetGlyfOffset:                  ## @stbtt__GetGlyfOffset
	.cfi_startproc
## %bb.0:
	cmpl	$0, 76(%rdi)
	jne	LBB50_8
## %bb.1:
	movl	$-1, %eax
	cmpl	%esi, 20(%rdi)
	jle	LBB50_7
## %bb.2:
	movl	60(%rdi), %ecx
	cmpl	$1, %ecx
	jg	LBB50_7
## %bb.3:
	movslq	24(%rdi), %rdx
	addq	8(%rdi), %rdx
	movl	32(%rdi), %edi
	testl	%ecx, %ecx
	je	LBB50_4
## %bb.5:
	movslq	%esi, %rcx
	movl	(%rdx,%rcx,4), %eax
	movl	4(%rdx,%rcx,4), %edx
	bswapl	%eax
	bswapl	%edx
	jmp	LBB50_6
LBB50_4:
	movslq	%esi, %rcx
	movzbl	(%rdx,%rcx,2), %esi
	shll	$8, %esi
	movzbl	1(%rdx,%rcx,2), %eax
	orl	%esi, %eax
	addl	%eax, %eax
	movzbl	2(%rdx,%rcx,2), %esi
	shll	$8, %esi
	movzbl	3(%rdx,%rcx,2), %edx
	orl	%esi, %edx
	addl	%edx, %edx
LBB50_6:
	addl	%eax, %edi
	cmpl	%edx, %eax
	movl	$-1, %eax
	cmovnel	%edi, %eax
LBB50_7:
	retq
LBB50_8:
	pushq	%rbp
	.cfi_def_cfa_offset 16
	.cfi_offset %rbp, -16
	movq	%rsp, %rbp
	.cfi_def_cfa_register %rbp
	leaq	L___func__.stbtt__GetGlyfOffset(%rip), %rdi
	leaq	L_.str.2(%rip), %rsi
	leaq	L_.str.90(%rip), %rcx
	movl	$1607, %edx             ## imm = 0x647
	callq	___assert_rtn
	.cfi_endproc
                                        ## -- End function
	.globl	_stbtt_GetCodepointBox  ## -- Begin function stbtt_GetCodepointBox
	.p2align	4, 0x90
_stbtt_GetCodepointBox:                 ## @stbtt_GetCodepointBox
	.cfi_startproc
## %bb.0:
	pushq	%rbp
	.cfi_def_cfa_offset 16
	.cfi_offset %rbp, -16
	movq	%rsp, %rbp
	.cfi_def_cfa_register %rbp
	pushq	%r15
	pushq	%r14
	pushq	%r13
	pushq	%r12
	pushq	%rbx
	pushq	%rax
	.cfi_offset %rbx, -56
	.cfi_offset %r12, -48
	.cfi_offset %r13, -40
	.cfi_offset %r14, -32
	.cfi_offset %r15, -24
	movq	%r9, %r14
	movq	%r8, %r15
	movq	%rcx, %r12
	movq	%rdx, %r13
	movq	%rdi, %rbx
	callq	_stbtt_FindGlyphIndex
	movq	%rbx, %rdi
	movl	%eax, %esi
	movq	%r13, %rdx
	movq	%r12, %rcx
	movq	%r15, %r8
	movq	%r14, %r9
	addq	$8, %rsp
	popq	%rbx
	popq	%r12
	popq	%r13
	popq	%r14
	popq	%r15
	popq	%rbp
	jmp	_stbtt_GetGlyphBox      ## TAILCALL
	.cfi_endproc
                                        ## -- End function
	.globl	_stbtt_IsGlyphEmpty     ## -- Begin function stbtt_IsGlyphEmpty
	.p2align	4, 0x90
_stbtt_IsGlyphEmpty:                    ## @stbtt_IsGlyphEmpty
	.cfi_startproc
## %bb.0:
	pushq	%rbp
	.cfi_def_cfa_offset 16
	.cfi_offset %rbp, -16
	movq	%rsp, %rbp
	.cfi_def_cfa_register %rbp
	pushq	%rbx
	subq	$56, %rsp
	.cfi_offset %rbx, -24
	movq	%rdi, %rbx
	cmpl	$0, 76(%rdi)
	je	LBB52_2
## %bb.1:
	xorps	%xmm0, %xmm0
	movaps	%xmm0, -64(%rbp)
	movaps	%xmm0, -32(%rbp)
	movaps	%xmm0, -48(%rbp)
	movq	$0, -16(%rbp)
	movl	$1, -64(%rbp)
	leaq	-64(%rbp), %rdx
	movq	%rbx, %rdi
	callq	_stbtt__run_charstring
	testl	%eax, %eax
	sete	%cl
	cmpl	$0, -16(%rbp)
	sete	%al
	orb	%cl, %al
	jmp	LBB52_5
LBB52_2:
	movq	%rbx, %rdi
	callq	_stbtt__GetGlyfOffset
	testl	%eax, %eax
	js	LBB52_3
## %bb.4:
	movq	8(%rbx), %rcx
	cltq
	movzwl	(%rcx,%rax), %eax
	rolw	$8, %ax
	testw	%ax, %ax
	sete	%al
	jmp	LBB52_5
LBB52_3:
	movb	$1, %al
LBB52_5:
	movzbl	%al, %eax
	addq	$56, %rsp
	popq	%rbx
	popq	%rbp
	retq
	.cfi_endproc
                                        ## -- End function
	.globl	_stbtt_GetGlyphHMetrics ## -- Begin function stbtt_GetGlyphHMetrics
	.p2align	4, 0x90
_stbtt_GetGlyphHMetrics:                ## @stbtt_GetGlyphHMetrics
	.cfi_startproc
## %bb.0:
	pushq	%rbp
	.cfi_def_cfa_offset 16
	.cfi_offset %rbp, -16
	movq	%rsp, %rbp
	.cfi_def_cfa_register %rbp
	movq	8(%rdi), %r8
	movslq	36(%rdi), %r9
	movzbl	34(%r8,%r9), %eax
	shlq	$8, %rax
	movzbl	35(%r8,%r9), %r9d
	orq	%rax, %r9
	cmpl	%esi, %r9d
	jle	LBB53_5
## %bb.1:
	testq	%rdx, %rdx
	je	LBB53_3
## %bb.2:
	movslq	40(%rdi), %rax
	addq	%r8, %rax
	movslq	%esi, %r9
	movzbl	(%rax,%r9,4), %r10d
	shll	$8, %r10d
	movzbl	1(%rax,%r9,4), %r9d
	movswl	%r10w, %eax
	orl	%r9d, %eax
	movl	%eax, (%rdx)
LBB53_3:
	testq	%rcx, %rcx
	je	LBB53_10
## %bb.4:
	movslq	40(%rdi), %rax
	addq	%rax, %r8
	movslq	%esi, %rax
	movzbl	2(%r8,%rax,4), %edx
	shll	$8, %edx
	movzbl	3(%r8,%rax,4), %eax
	movswl	%dx, %edx
	jmp	LBB53_9
LBB53_5:
	testq	%rdx, %rdx
	je	LBB53_7
## %bb.6:
	movslq	40(%rdi), %rax
	addq	%r8, %rax
	movzbl	-4(%rax,%r9,4), %r10d
	shll	$8, %r10d
	movzbl	-3(%rax,%r9,4), %r11d
	movswl	%r10w, %eax
	orl	%r11d, %eax
	movl	%eax, (%rdx)
LBB53_7:
	testq	%rcx, %rcx
	je	LBB53_10
## %bb.8:
	movslq	40(%rdi), %rax
	addq	%rax, %r8
	movl	%r9d, %eax
	leaq	(%r8,%rax,4), %rax
	subl	%r9d, %esi
	movslq	%esi, %rdx
	movzbl	(%rax,%rdx,2), %esi
	shll	$8, %esi
	movzbl	1(%rax,%rdx,2), %eax
	movswl	%si, %edx
LBB53_9:
	orl	%eax, %edx
	movl	%edx, (%rcx)
LBB53_10:
	popq	%rbp
	retq
	.cfi_endproc
                                        ## -- End function
	.globl	_stbtt_GetKerningTableLength ## -- Begin function stbtt_GetKerningTableLength
	.p2align	4, 0x90
_stbtt_GetKerningTableLength:           ## @stbtt_GetKerningTableLength
	.cfi_startproc
## %bb.0:
	pushq	%rbp
	.cfi_def_cfa_offset 16
	.cfi_offset %rbp, -16
	movq	%rsp, %rbp
	.cfi_def_cfa_register %rbp
	movslq	44(%rdi), %rcx
	xorl	%eax, %eax
	testq	%rcx, %rcx
	je	LBB54_4
## %bb.1:
	movq	8(%rdi), %rdx
	movzwl	2(%rdx,%rcx), %esi
	rolw	$8, %si
	testw	%si, %si
	je	LBB54_4
## %bb.2:
	movzwl	8(%rdx,%rcx), %esi
	rolw	$8, %si
	cmpw	$1, %si
	jne	LBB54_4
## %bb.3:
	movzbl	10(%rdx,%rcx), %esi
	shll	$8, %esi
	movzbl	11(%rdx,%rcx), %eax
	orl	%esi, %eax
LBB54_4:
	popq	%rbp
	retq
	.cfi_endproc
                                        ## -- End function
	.globl	_stbtt_GetKerningTable  ## -- Begin function stbtt_GetKerningTable
	.p2align	4, 0x90
_stbtt_GetKerningTable:                 ## @stbtt_GetKerningTable
	.cfi_startproc
## %bb.0:
	pushq	%rbp
	.cfi_def_cfa_offset 16
	.cfi_offset %rbp, -16
	movq	%rsp, %rbp
	.cfi_def_cfa_register %rbp
	movslq	44(%rdi), %rcx
	xorl	%eax, %eax
	testq	%rcx, %rcx
	je	LBB55_6
## %bb.1:
	movq	8(%rdi), %r9
	movzwl	2(%r9,%rcx), %edi
	rolw	$8, %di
	testw	%di, %di
	je	LBB55_6
## %bb.2:
	movzwl	8(%r9,%rcx), %edi
	rolw	$8, %di
	cmpw	$1, %di
	jne	LBB55_6
## %bb.3:
	movzbl	10(%r9,%rcx), %edi
	shll	$8, %edi
	movzbl	11(%r9,%rcx), %eax
	orl	%edi, %eax
	cmpl	%edx, %eax
	cmovgl	%edx, %eax
	testl	%eax, %eax
	jle	LBB55_6
## %bb.4:
	movslq	%eax, %r8
	leaq	23(%r9,%rcx), %r9
	xorl	%edi, %edi
	xorl	%r10d, %r10d
	.p2align	4, 0x90
LBB55_5:                                ## =>This Inner Loop Header: Depth=1
	movzbl	-5(%r9,%rdi), %edx
	shll	$8, %edx
	movzbl	-4(%r9,%rdi), %ecx
	orl	%edx, %ecx
	movl	%ecx, (%rsi,%rdi,2)
	movzbl	-3(%r9,%rdi), %ecx
	shll	$8, %ecx
	movzbl	-2(%r9,%rdi), %edx
	orl	%ecx, %edx
	movl	%edx, 4(%rsi,%rdi,2)
	movzbl	-1(%r9,%rdi), %ecx
	shll	$8, %ecx
	movzbl	(%r9,%rdi), %edx
	movswl	%cx, %ecx
	orl	%edx, %ecx
	movl	%ecx, 8(%rsi,%rdi,2)
	incq	%r10
	addq	$6, %rdi
	cmpq	%r8, %r10
	jl	LBB55_5
LBB55_6:
	popq	%rbp
	retq
	.cfi_endproc
                                        ## -- End function
	.globl	_stbtt_GetGlyphKernAdvance ## -- Begin function stbtt_GetGlyphKernAdvance
	.p2align	4, 0x90
_stbtt_GetGlyphKernAdvance:             ## @stbtt_GetGlyphKernAdvance
	.cfi_startproc
## %bb.0:
	pushq	%rbp
	.cfi_def_cfa_offset 16
	.cfi_offset %rbp, -16
	movq	%rsp, %rbp
	.cfi_def_cfa_register %rbp
	pushq	%r15
	pushq	%r14
	pushq	%r13
	pushq	%r12
	pushq	%rbx
	subq	$40, %rsp
	.cfi_offset %rbx, -56
	.cfi_offset %r12, -48
	.cfi_offset %r13, -40
	.cfi_offset %r14, -32
	.cfi_offset %r15, -24
	movl	%edx, -44(%rbp)         ## 4-byte Spill
	movslq	48(%rdi), %rax
	testq	%rax, %rax
	je	LBB56_48
## %bb.1:
	movq	8(%rdi), %rdx
	movzwl	(%rdx,%rax), %ecx
	rolw	$8, %cx
	xorl	%r13d, %r13d
	cmpw	$1, %cx
	jne	LBB56_58
## %bb.2:
	addq	%rax, %rdx
	movzwl	2(%rdx), %eax
	rolw	$8, %ax
	testw	%ax, %ax
	jne	LBB56_58
## %bb.3:
	movzbl	8(%rdx), %ecx
	shlq	$8, %rcx
	movzbl	9(%rdx), %eax
	orq	%rcx, %rax
	movzbl	(%rdx,%rax), %ecx
	shlq	$8, %rcx
	movq	%rdx, -56(%rbp)         ## 8-byte Spill
	movzbl	1(%rdx,%rax), %edx
	orq	%rcx, %rdx
	movq	%rdx, -72(%rbp)         ## 8-byte Spill
	testl	%edx, %edx
	je	LBB56_58
## %bb.4:
	addq	%rax, -56(%rbp)         ## 8-byte Folded Spill
	xorl	%eax, %eax
	movq	%rax, -64(%rbp)         ## 8-byte Spill
LBB56_5:                                ## =>This Loop Header: Depth=1
                                        ##     Child Loop BB56_8 Depth 2
                                        ##       Child Loop BB56_12 Depth 3
                                        ##       Child Loop BB56_19 Depth 3
                                        ##       Child Loop BB56_41 Depth 3
	movq	-56(%rbp), %rcx         ## 8-byte Reload
	movq	-64(%rbp), %rdx         ## 8-byte Reload
	movzbl	2(%rcx,%rdx,2), %eax
	shlq	$8, %rax
	movzbl	3(%rcx,%rdx,2), %r8d
	orq	%rax, %r8
	movzwl	(%rcx,%r8), %eax
	rolw	$8, %ax
	cmpw	$2, %ax
	jne	LBB56_25
## %bb.6:                               ##   in Loop: Header=BB56_5 Depth=1
	movq	-56(%rbp), %rcx         ## 8-byte Reload
	movzbl	4(%rcx,%r8), %eax
	shlq	$8, %rax
	movzbl	5(%rcx,%r8), %r11d
	orq	%rax, %r11
	testl	%r11d, %r11d
	je	LBB56_25
## %bb.7:                               ##   in Loop: Header=BB56_5 Depth=1
	addq	-56(%rbp), %r8          ## 8-byte Folded Reload
	xorl	%r9d, %r9d
	.p2align	4, 0x90
LBB56_8:                                ##   Parent Loop BB56_5 Depth=1
                                        ## =>  This Loop Header: Depth=2
                                        ##       Child Loop BB56_12 Depth 3
                                        ##       Child Loop BB56_19 Depth 3
                                        ##       Child Loop BB56_41 Depth 3
	movzbl	6(%r8,%r9,2), %eax
	shlq	$8, %rax
	movzbl	7(%r8,%r9,2), %ecx
	orq	%rax, %rcx
	leaq	(%r8,%rcx), %r12
	movzwl	(%r8,%rcx), %r15d
	movzbl	2(%r8,%rcx), %eax
	shlq	$8, %rax
	movzbl	3(%r8,%rcx), %ecx
	orq	%rax, %rcx
	leaq	(%r12,%rcx), %r13
	movzwl	(%r12,%rcx), %eax
	rolw	$8, %ax
	cmpw	$2, %ax
	je	LBB56_17
## %bb.9:                               ##   in Loop: Header=BB56_8 Depth=2
	cmpw	$1, %ax
	jne	LBB56_24
## %bb.10:                              ##   in Loop: Header=BB56_8 Depth=2
	movzbl	2(%r13), %eax
	shll	$8, %eax
	movzbl	3(%r13), %ebx
	orl	%eax, %ebx
	je	LBB56_24
## %bb.11:                              ##   in Loop: Header=BB56_8 Depth=2
	decl	%ebx
	xorl	%edi, %edi
	.p2align	4, 0x90
LBB56_12:                               ##   Parent Loop BB56_5 Depth=1
                                        ##     Parent Loop BB56_8 Depth=2
                                        ## =>    This Inner Loop Header: Depth=3
	leal	(%rbx,%rdi), %eax
	movslq	%eax, %rcx
	sarl	%eax
	andq	$-2, %rcx
	movzbl	4(%r13,%rcx), %edx
	shll	$8, %edx
	movzbl	5(%r13,%rcx), %ecx
	orl	%edx, %ecx
	cmpl	%esi, %ecx
	jle	LBB56_14
## %bb.13:                              ##   in Loop: Header=BB56_12 Depth=3
	decl	%eax
	movl	%eax, %ebx
	jmp	LBB56_16
	.p2align	4, 0x90
LBB56_14:                               ##   in Loop: Header=BB56_12 Depth=3
	cmpl	%esi, %ecx
	jge	LBB56_27
## %bb.15:                              ##   in Loop: Header=BB56_12 Depth=3
	incl	%eax
	movl	%eax, %edi
LBB56_16:                               ##   in Loop: Header=BB56_12 Depth=3
	cmpl	%ebx, %edi
	jle	LBB56_12
	jmp	LBB56_24
	.p2align	4, 0x90
LBB56_17:                               ##   in Loop: Header=BB56_8 Depth=2
	movzbl	2(%r13), %ecx
	shll	$8, %ecx
	movzbl	3(%r13), %r10d
	orl	%ecx, %r10d
	je	LBB56_24
## %bb.18:                              ##   in Loop: Header=BB56_8 Depth=2
	decl	%r10d
	xorl	%ebx, %ebx
	.p2align	4, 0x90
LBB56_19:                               ##   Parent Loop BB56_5 Depth=1
                                        ##     Parent Loop BB56_8 Depth=2
                                        ## =>    This Inner Loop Header: Depth=3
	leal	(%r10,%rbx), %edi
	sarl	%edi
	movslq	%edi, %rcx
	addq	%rcx, %rcx
	leaq	(%rcx,%rcx,2), %rdx
	movzbl	4(%r13,%rdx), %r14d
	shll	$8, %r14d
	movzbl	5(%r13,%rdx), %ecx
	orl	%r14d, %ecx
	cmpl	%esi, %ecx
	jle	LBB56_21
## %bb.20:                              ##   in Loop: Header=BB56_19 Depth=3
	decl	%edi
	movl	%edi, %r10d
	cmpl	%r10d, %ebx
	jle	LBB56_19
	jmp	LBB56_24
	.p2align	4, 0x90
LBB56_21:                               ##   in Loop: Header=BB56_19 Depth=3
	movzbl	6(%r13,%rdx), %ebx
	shll	$8, %ebx
	movzbl	7(%r13,%rdx), %eax
	orl	%ebx, %eax
	cmpl	%esi, %eax
	jge	LBB56_26
## %bb.22:                              ##   in Loop: Header=BB56_19 Depth=3
	incl	%edi
	movl	%edi, %ebx
	cmpl	%r10d, %ebx
	jle	LBB56_19
	jmp	LBB56_24
LBB56_26:                               ##   in Loop: Header=BB56_8 Depth=2
	movzbl	8(%r13,%rdx), %eax
	shll	$8, %eax
	movzbl	9(%r13,%rdx), %edx
	orl	%eax, %edx
	movl	%esi, %eax
	subl	%ecx, %eax
	addl	%edx, %eax
LBB56_27:                               ##   in Loop: Header=BB56_8 Depth=2
	cmpl	$-1, %eax
	je	LBB56_24
## %bb.28:                              ##   in Loop: Header=BB56_8 Depth=2
	rolw	$8, %r15w
	xorl	%r13d, %r13d
	cmpw	$1, %r15w
	jne	LBB56_29
## %bb.36:                              ##   in Loop: Header=BB56_8 Depth=2
	movzwl	4(%r12), %ecx
	rolw	$8, %cx
	cmpw	$4, %cx
	jne	LBB56_58
## %bb.37:                              ##   in Loop: Header=BB56_8 Depth=2
	movzwl	6(%r12), %ecx
	rolw	$8, %cx
	testw	%cx, %cx
	jne	LBB56_58
## %bb.38:                              ##   in Loop: Header=BB56_8 Depth=2
	movzbl	8(%r12), %ecx
	shll	$8, %ecx
	movzbl	9(%r12), %edx
	orl	%ecx, %edx
	cmpl	%edx, %eax
	jge	LBB56_58
## %bb.39:                              ##   in Loop: Header=BB56_8 Depth=2
	cltq
	movzbl	10(%r12,%rax,2), %ecx
	shlq	$8, %rcx
	movzbl	11(%r12,%rax,2), %r10d
	orq	%rcx, %r10
	addq	%r12, %r10
	movzbl	(%r10), %edx
	shll	$8, %edx
	movzbl	1(%r10), %r14d
	orl	%edx, %r14d
	je	LBB56_24
## %bb.40:                              ##   in Loop: Header=BB56_8 Depth=2
	decl	%r14d
	xorl	%edi, %edi
	.p2align	4, 0x90
LBB56_41:                               ##   Parent Loop BB56_5 Depth=1
                                        ##     Parent Loop BB56_8 Depth=2
                                        ## =>    This Inner Loop Header: Depth=3
	leal	(%r14,%rdi), %edx
	sarl	%edx
	movslq	%edx, %rbx
	movzbl	2(%r10,%rbx,4), %eax
	shll	$8, %eax
	movzbl	3(%r10,%rbx,4), %ecx
	orl	%eax, %ecx
	cmpl	-44(%rbp), %ecx         ## 4-byte Folded Reload
	jle	LBB56_43
## %bb.42:                              ##   in Loop: Header=BB56_41 Depth=3
	decl	%edx
	movl	%edx, %r14d
	jmp	LBB56_45
	.p2align	4, 0x90
LBB56_43:                               ##   in Loop: Header=BB56_41 Depth=3
	jge	LBB56_46
## %bb.44:                              ##   in Loop: Header=BB56_41 Depth=3
	incl	%edx
	movl	%edx, %edi
LBB56_45:                               ##   in Loop: Header=BB56_41 Depth=3
	cmpl	%r14d, %edi
	jle	LBB56_41
	.p2align	4, 0x90
LBB56_24:                               ##   in Loop: Header=BB56_8 Depth=2
	incq	%r9
	cmpq	%r11, %r9
	jb	LBB56_8
LBB56_25:                               ##   in Loop: Header=BB56_5 Depth=1
	movq	-64(%rbp), %rax         ## 8-byte Reload
	movq	%rax, %rcx
	incq	%rcx
	xorl	%r13d, %r13d
	movq	%rcx, %rax
	movq	%rcx, -64(%rbp)         ## 8-byte Spill
	cmpq	-72(%rbp), %rcx         ## 8-byte Folded Reload
	jb	LBB56_5
	jmp	LBB56_58
LBB56_48:
	movslq	44(%rdi), %rcx
	xorl	%r13d, %r13d
	testq	%rcx, %rcx
	je	LBB56_58
## %bb.49:
	movq	8(%rdi), %r8
	movzwl	2(%r8,%rcx), %edx
	rolw	$8, %dx
	testw	%dx, %dx
	je	LBB56_58
## %bb.50:
	addq	%rcx, %r8
	movzwl	8(%r8), %ecx
	rolw	$8, %cx
	cmpw	$1, %cx
	jne	LBB56_58
## %bb.51:
	movzbl	10(%r8), %edx
	shll	$8, %edx
	movzbl	11(%r8), %ecx
	orl	%edx, %ecx
	je	LBB56_58
## %bb.52:
	shll	$16, %esi
	orl	-44(%rbp), %esi         ## 4-byte Folded Reload
	decl	%ecx
	xorl	%edx, %edx
	xorl	%r13d, %r13d
	.p2align	4, 0x90
LBB56_53:                               ## =>This Inner Loop Header: Depth=1
	leal	(%rdx,%rcx), %edi
	sarl	%edi
	movslq	%edi, %rbx
	addq	%rbx, %rbx
	leaq	(%rbx,%rbx,2), %rbx
	movl	18(%r8,%rbx), %eax
	bswapl	%eax
	cmpl	%eax, %esi
	jae	LBB56_55
## %bb.54:                              ##   in Loop: Header=BB56_53 Depth=1
	decl	%edi
	movl	%edi, %ecx
	cmpl	%ecx, %edx
	jle	LBB56_53
	jmp	LBB56_58
	.p2align	4, 0x90
LBB56_55:                               ##   in Loop: Header=BB56_53 Depth=1
	jbe	LBB56_59
## %bb.56:                              ##   in Loop: Header=BB56_53 Depth=1
	incl	%edi
	movl	%edi, %edx
	cmpl	%ecx, %edx
	jle	LBB56_53
	jmp	LBB56_58
LBB56_46:
	movzbl	4(%r10,%rbx,4), %eax
	shll	$8, %eax
	movzbl	5(%r10,%rbx,4), %ecx
	jmp	LBB56_47
LBB56_59:
	movzbl	22(%r8,%rbx), %eax
	shll	$8, %eax
	movzbl	23(%r8,%rbx), %ecx
LBB56_47:
	movswl	%ax, %r13d
	orl	%ecx, %r13d
LBB56_58:
	movl	%r13d, %eax
	addq	$40, %rsp
	popq	%rbx
	popq	%r12
	popq	%r13
	popq	%r14
	popq	%r15
	popq	%rbp
	retq
LBB56_29:
	cmpw	$2, %r15w
	jne	LBB56_58
## %bb.30:
	movzwl	4(%r12), %eax
	rolw	$8, %ax
	cmpw	$4, %ax
	jne	LBB56_58
## %bb.31:
	movzwl	6(%r12), %eax
	rolw	$8, %ax
	testw	%ax, %ax
	jne	LBB56_58
## %bb.32:
	movzbl	8(%r12), %eax
	shlq	$8, %rax
	movzbl	9(%r12), %edi
	orq	%rax, %rdi
	movzbl	10(%r12), %eax
	shlq	$8, %rax
	movzbl	11(%r12), %ebx
	orq	%rax, %rbx
	addq	%r12, %rdi
	callq	_stbtt__GetGlyphClass
	movl	%eax, %r15d
	addq	%r12, %rbx
	movq	%rbx, %rdi
	movl	-44(%rbp), %esi         ## 4-byte Reload
	callq	_stbtt__GetGlyphClass
	testl	%eax, %eax
	js	LBB56_58
## %bb.33:
	movzbl	12(%r12), %ecx
	shll	$8, %ecx
	movzbl	13(%r12), %edx
	orl	%ecx, %edx
	cmpl	%edx, %r15d
	jae	LBB56_58
## %bb.34:
	movzbl	14(%r12), %edx
	shll	$8, %edx
	movzbl	15(%r12), %ecx
	orl	%edx, %ecx
	cmpl	%ecx, %eax
	jge	LBB56_58
## %bb.35:
	imull	%ecx, %r15d
	addl	%r15d, %r15d
	movslq	%r15d, %rcx
	addq	%rcx, %r12
	cltq
	movzbl	16(%r12,%rax,2), %ecx
	shll	$8, %ecx
	movzbl	17(%r12,%rax,2), %eax
	movswl	%cx, %r13d
	orl	%eax, %r13d
	jmp	LBB56_58
	.cfi_endproc
                                        ## -- End function
	.globl	_stbtt_GetCodepointKernAdvance ## -- Begin function stbtt_GetCodepointKernAdvance
	.p2align	4, 0x90
_stbtt_GetCodepointKernAdvance:         ## @stbtt_GetCodepointKernAdvance
	.cfi_startproc
## %bb.0:
	pushq	%rbp
	.cfi_def_cfa_offset 16
	.cfi_offset %rbp, -16
	movq	%rsp, %rbp
	.cfi_def_cfa_register %rbp
	pushq	%r15
	pushq	%r14
	pushq	%rbx
	pushq	%rax
	.cfi_offset %rbx, -40
	.cfi_offset %r14, -32
	.cfi_offset %r15, -24
	movl	%edx, %r14d
	movq	%rdi, %rbx
	cmpl	$0, 44(%rdi)
	jne	LBB57_3
## %bb.1:
	cmpl	$0, 48(%rbx)
	je	LBB57_2
LBB57_3:
	movq	%rbx, %rdi
	callq	_stbtt_FindGlyphIndex
	movl	%eax, %r15d
	movq	%rbx, %rdi
	movl	%r14d, %esi
	callq	_stbtt_FindGlyphIndex
	movq	%rbx, %rdi
	movl	%r15d, %esi
	movl	%eax, %edx
	addq	$8, %rsp
	popq	%rbx
	popq	%r14
	popq	%r15
	popq	%rbp
	jmp	_stbtt_GetGlyphKernAdvance ## TAILCALL
LBB57_2:
	xorl	%eax, %eax
	addq	$8, %rsp
	popq	%rbx
	popq	%r14
	popq	%r15
	popq	%rbp
	retq
	.cfi_endproc
                                        ## -- End function
	.globl	_stbtt_GetCodepointHMetrics ## -- Begin function stbtt_GetCodepointHMetrics
	.p2align	4, 0x90
_stbtt_GetCodepointHMetrics:            ## @stbtt_GetCodepointHMetrics
	.cfi_startproc
## %bb.0:
	pushq	%rbp
	.cfi_def_cfa_offset 16
	.cfi_offset %rbp, -16
	movq	%rsp, %rbp
	.cfi_def_cfa_register %rbp
	pushq	%r15
	pushq	%r14
	pushq	%rbx
	pushq	%rax
	.cfi_offset %rbx, -40
	.cfi_offset %r14, -32
	.cfi_offset %r15, -24
	movq	%rcx, %r14
	movq	%rdx, %r15
	movq	%rdi, %rbx
	callq	_stbtt_FindGlyphIndex
	movq	8(%rbx), %rcx
	movslq	36(%rbx), %rdx
	movzbl	34(%rcx,%rdx), %esi
	shlq	$8, %rsi
	movzbl	35(%rcx,%rdx), %edx
	orq	%rsi, %rdx
	movl	%eax, %esi
	subl	%edx, %esi
	jge	LBB58_5
## %bb.1:
	testq	%r15, %r15
	je	LBB58_3
## %bb.2:
	movslq	40(%rbx), %rdx
	addq	%rcx, %rdx
	movslq	%eax, %rsi
	movzbl	(%rdx,%rsi,4), %edi
	shll	$8, %edi
	movzbl	1(%rdx,%rsi,4), %edx
	movswl	%di, %esi
	orl	%edx, %esi
	movl	%esi, (%r15)
LBB58_3:
	testq	%r14, %r14
	je	LBB58_10
## %bb.4:
	movslq	40(%rbx), %rdx
	addq	%rdx, %rcx
	cltq
	movzbl	2(%rcx,%rax,4), %edx
	shll	$8, %edx
	movzbl	3(%rcx,%rax,4), %eax
	jmp	LBB58_9
LBB58_5:
	testq	%r15, %r15
	je	LBB58_7
## %bb.6:
	movslq	40(%rbx), %rax
	addq	%rcx, %rax
	movzbl	-4(%rax,%rdx,4), %edi
	shll	$8, %edi
	movzbl	-3(%rax,%rdx,4), %eax
	movswl	%di, %edi
	orl	%eax, %edi
	movl	%edi, (%r15)
LBB58_7:
	testq	%r14, %r14
	je	LBB58_10
## %bb.8:
	movslq	40(%rbx), %rax
	addq	%rax, %rcx
	movl	%edx, %eax
	leaq	(%rcx,%rax,4), %rax
	movslq	%esi, %rcx
	movzbl	(%rax,%rcx,2), %edx
	shll	$8, %edx
	movzbl	1(%rax,%rcx,2), %eax
LBB58_9:
	movswl	%dx, %ecx
	orl	%eax, %ecx
	movl	%ecx, (%r14)
LBB58_10:
	addq	$8, %rsp
	popq	%rbx
	popq	%r14
	popq	%r15
	popq	%rbp
	retq
	.cfi_endproc
                                        ## -- End function
	.globl	_stbtt_GetFontVMetrics  ## -- Begin function stbtt_GetFontVMetrics
	.p2align	4, 0x90
_stbtt_GetFontVMetrics:                 ## @stbtt_GetFontVMetrics
	.cfi_startproc
## %bb.0:
	pushq	%rbp
	.cfi_def_cfa_offset 16
	.cfi_offset %rbp, -16
	movq	%rsp, %rbp
	.cfi_def_cfa_register %rbp
	testq	%rsi, %rsi
	je	LBB59_2
## %bb.1:
	movq	8(%rdi), %r8
	movslq	36(%rdi), %r9
	movzbl	4(%r8,%r9), %eax
	shll	$8, %eax
	movzbl	5(%r8,%r9), %r8d
	cwtl
	orl	%r8d, %eax
	movl	%eax, (%rsi)
LBB59_2:
	testq	%rdx, %rdx
	je	LBB59_4
## %bb.3:
	movq	8(%rdi), %r8
	movslq	36(%rdi), %rsi
	movzbl	6(%r8,%rsi), %eax
	shll	$8, %eax
	movzbl	7(%r8,%rsi), %esi
	cwtl
	orl	%esi, %eax
	movl	%eax, (%rdx)
LBB59_4:
	testq	%rcx, %rcx
	je	LBB59_6
## %bb.5:
	movq	8(%rdi), %rax
	movslq	36(%rdi), %rdx
	movzbl	8(%rax,%rdx), %esi
	shll	$8, %esi
	movzbl	9(%rax,%rdx), %eax
	movswl	%si, %edx
	orl	%eax, %edx
	movl	%edx, (%rcx)
LBB59_6:
	popq	%rbp
	retq
	.cfi_endproc
                                        ## -- End function
	.globl	_stbtt_GetFontVMetricsOS2 ## -- Begin function stbtt_GetFontVMetricsOS2
	.p2align	4, 0x90
_stbtt_GetFontVMetricsOS2:              ## @stbtt_GetFontVMetricsOS2
	.cfi_startproc
## %bb.0:
	pushq	%rbp
	.cfi_def_cfa_offset 16
	.cfi_offset %rbp, -16
	movq	%rsp, %rbp
	.cfi_def_cfa_register %rbp
	movq	8(%rdi), %r8
	movl	16(%rdi), %eax
	movzbl	4(%r8,%rax), %edi
	shlq	$8, %rdi
	movzbl	5(%r8,%rax), %r9d
	orq	%rdi, %r9
	testl	%r9d, %r9d
	je	LBB60_1
## %bb.2:
	addl	$12, %eax
	xorl	%edi, %edi
	.p2align	4, 0x90
LBB60_3:                                ## =>This Inner Loop Header: Depth=1
	movl	%eax, %eax
	cmpb	$79, (%r8,%rax)
	jne	LBB60_7
## %bb.4:                               ##   in Loop: Header=BB60_3 Depth=1
	cmpb	$83, 1(%r8,%rax)
	jne	LBB60_7
## %bb.5:                               ##   in Loop: Header=BB60_3 Depth=1
	cmpb	$47, 2(%r8,%rax)
	jne	LBB60_7
## %bb.6:                               ##   in Loop: Header=BB60_3 Depth=1
	cmpb	$50, 3(%r8,%rax)
	je	LBB60_9
	.p2align	4, 0x90
LBB60_7:                                ##   in Loop: Header=BB60_3 Depth=1
	incq	%rdi
	addl	$16, %eax
	cmpq	%r9, %rdi
	jb	LBB60_3
## %bb.8:
	xorl	%eax, %eax
	popq	%rbp
	retq
LBB60_1:
	xorl	%eax, %eax
	popq	%rbp
	retq
LBB60_9:
	movzbl	8(%r8,%rax), %r9d
	shll	$24, %r9d
	movzbl	9(%r8,%rax), %edi
	shlq	$16, %rdi
	movslq	%r9d, %r9
	orq	%rdi, %r9
	movzbl	10(%r8,%rax), %edi
	shlq	$8, %rdi
	orq	%r9, %rdi
	movzbl	11(%r8,%rax), %r9d
	orq	%rdi, %r9
	testl	%r9d, %r9d
	je	LBB60_10
## %bb.11:
	testq	%rsi, %rsi
	je	LBB60_13
## %bb.12:
	movzbl	68(%r8,%r9), %eax
	shll	$8, %eax
	movzbl	69(%r8,%r9), %edi
	cwtl
	orl	%edi, %eax
	movl	%eax, (%rsi)
LBB60_13:
	testq	%rdx, %rdx
	je	LBB60_15
## %bb.14:
	movzbl	70(%r8,%r9), %eax
	shll	$8, %eax
	movzbl	71(%r8,%r9), %esi
	cwtl
	orl	%esi, %eax
	movl	%eax, (%rdx)
LBB60_15:
	movl	$1, %eax
	testq	%rcx, %rcx
	je	LBB60_17
## %bb.16:
	movzbl	72(%r8,%r9), %edx
	shll	$8, %edx
	movzbl	73(%r8,%r9), %esi
	movswl	%dx, %edx
	orl	%esi, %edx
	movl	%edx, (%rcx)
LBB60_17:
	popq	%rbp
	retq
LBB60_10:
	xorl	%eax, %eax
	popq	%rbp
	retq
	.cfi_endproc
                                        ## -- End function
	.globl	_stbtt_GetFontBoundingBox ## -- Begin function stbtt_GetFontBoundingBox
	.p2align	4, 0x90
_stbtt_GetFontBoundingBox:              ## @stbtt_GetFontBoundingBox
	.cfi_startproc
## %bb.0:
	pushq	%rbp
	.cfi_def_cfa_offset 16
	.cfi_offset %rbp, -16
	movq	%rsp, %rbp
	.cfi_def_cfa_register %rbp
	movq	8(%rdi), %r11
	movslq	28(%rdi), %r9
	movzbl	36(%r11,%r9), %r10d
	shll	$8, %r10d
	movzbl	37(%r11,%r9), %r9d
	movswl	%r10w, %eax
	orl	%r9d, %eax
	movl	%eax, (%rsi)
	movslq	28(%rdi), %rax
	movzbl	38(%r11,%rax), %esi
	shll	$8, %esi
	movzbl	39(%r11,%rax), %eax
	movswl	%si, %esi
	orl	%eax, %esi
	movl	%esi, (%rdx)
	movslq	28(%rdi), %rax
	movzbl	40(%r11,%rax), %edx
	shll	$8, %edx
	movzbl	41(%r11,%rax), %eax
	movswl	%dx, %edx
	orl	%eax, %edx
	movl	%edx, (%rcx)
	movslq	28(%rdi), %rax
	movzbl	42(%r11,%rax), %ecx
	shll	$8, %ecx
	movzbl	43(%r11,%rax), %eax
	movswl	%cx, %ecx
	orl	%eax, %ecx
	movl	%ecx, (%r8)
	popq	%rbp
	retq
	.cfi_endproc
                                        ## -- End function
	.globl	_stbtt_ScaleForPixelHeight ## -- Begin function stbtt_ScaleForPixelHeight
	.p2align	4, 0x90
_stbtt_ScaleForPixelHeight:             ## @stbtt_ScaleForPixelHeight
	.cfi_startproc
## %bb.0:
	pushq	%rbp
	.cfi_def_cfa_offset 16
	.cfi_offset %rbp, -16
	movq	%rsp, %rbp
	.cfi_def_cfa_register %rbp
	movq	8(%rdi), %rax
	movslq	36(%rdi), %rcx
	movzbl	4(%rax,%rcx), %edx
	shll	$8, %edx
	movzbl	5(%rax,%rcx), %esi
	movswl	%dx, %edx
	orl	%esi, %edx
	movzbl	6(%rax,%rcx), %esi
	shll	$8, %esi
	movzbl	7(%rax,%rcx), %eax
	movswl	%si, %ecx
	orl	%eax, %ecx
	subl	%ecx, %edx
	cvtsi2ssl	%edx, %xmm1
	divss	%xmm1, %xmm0
	popq	%rbp
	retq
	.cfi_endproc
                                        ## -- End function
	.globl	_stbtt_ScaleForMappingEmToPixels ## -- Begin function stbtt_ScaleForMappingEmToPixels
	.p2align	4, 0x90
_stbtt_ScaleForMappingEmToPixels:       ## @stbtt_ScaleForMappingEmToPixels
	.cfi_startproc
## %bb.0:
	pushq	%rbp
	.cfi_def_cfa_offset 16
	.cfi_offset %rbp, -16
	movq	%rsp, %rbp
	.cfi_def_cfa_register %rbp
	movq	8(%rdi), %rax
	movslq	28(%rdi), %rcx
	movzwl	18(%rax,%rcx), %eax
	rolw	$8, %ax
	movzwl	%ax, %eax
	cvtsi2ssl	%eax, %xmm1
	divss	%xmm1, %xmm0
	popq	%rbp
	retq
	.cfi_endproc
                                        ## -- End function
	.globl	_stbtt_FreeShape        ## -- Begin function stbtt_FreeShape
	.p2align	4, 0x90
_stbtt_FreeShape:                       ## @stbtt_FreeShape
	.cfi_startproc
## %bb.0:
	pushq	%rbp
	.cfi_def_cfa_offset 16
	.cfi_offset %rbp, -16
	movq	%rsp, %rbp
	.cfi_def_cfa_register %rbp
	movq	%rsi, %rdi
	popq	%rbp
	jmp	_free                   ## TAILCALL
	.cfi_endproc
                                        ## -- End function
	.globl	_stbtt_FindSVGDoc       ## -- Begin function stbtt_FindSVGDoc
	.p2align	4, 0x90
_stbtt_FindSVGDoc:                      ## @stbtt_FindSVGDoc
	.cfi_startproc
## %bb.0:
	pushq	%rbp
	.cfi_def_cfa_offset 16
	.cfi_offset %rbp, -16
	movq	%rsp, %rbp
	.cfi_def_cfa_register %rbp
	movq	8(%rdi), %rax
	movl	52(%rdi), %ecx
	testl	%ecx, %ecx
	jns	LBB65_11
## %bb.1:
	movl	16(%rdi), %ecx
	movzbl	4(%rax,%rcx), %edx
	shlq	$8, %rdx
	movzbl	5(%rax,%rcx), %r8d
	orq	%rdx, %r8
	testl	%r8d, %r8d
	je	LBB65_9
## %bb.2:
	addl	$12, %ecx
	xorl	%edx, %edx
	.p2align	4, 0x90
LBB65_3:                                ## =>This Inner Loop Header: Depth=1
	movl	%ecx, %ecx
	cmpb	$83, (%rax,%rcx)
	jne	LBB65_7
## %bb.4:                               ##   in Loop: Header=BB65_3 Depth=1
	cmpb	$86, 1(%rax,%rcx)
	jne	LBB65_7
## %bb.5:                               ##   in Loop: Header=BB65_3 Depth=1
	cmpb	$71, 2(%rax,%rcx)
	jne	LBB65_7
## %bb.6:                               ##   in Loop: Header=BB65_3 Depth=1
	cmpb	$32, 3(%rax,%rcx)
	je	LBB65_18
	.p2align	4, 0x90
LBB65_7:                                ##   in Loop: Header=BB65_3 Depth=1
	incq	%rdx
	addl	$16, %ecx
	cmpq	%r8, %rdx
	jb	LBB65_3
LBB65_9:
	xorl	%ecx, %ecx
LBB65_10:
	movl	%ecx, 52(%rdi)
LBB65_11:
	movslq	%ecx, %rdx
	movzbl	(%rax,%rdx), %edi
	shlq	$8, %rdi
	movzbl	1(%rax,%rdx), %r8d
	orq	%rdi, %r8
	testl	%r8d, %r8d
	je	LBB65_16
## %bb.12:
	leaq	2(%rax,%rdx), %rax
	xorl	%edx, %edx
	.p2align	4, 0x90
LBB65_13:                               ## =>This Inner Loop Header: Depth=1
	movzbl	(%rax), %edi
	shll	$8, %edi
	movzbl	1(%rax), %ecx
	orl	%edi, %ecx
	cmpl	%esi, %ecx
	jg	LBB65_15
## %bb.14:                              ##   in Loop: Header=BB65_13 Depth=1
	movzbl	2(%rax), %ecx
	shll	$8, %ecx
	movzbl	3(%rax), %edi
	orl	%ecx, %edi
	cmpl	%esi, %edi
	jge	LBB65_17
LBB65_15:                               ##   in Loop: Header=BB65_13 Depth=1
	incq	%rdx
	addq	$12, %rax
	cmpq	%r8, %rdx
	jb	LBB65_13
LBB65_16:
	xorl	%eax, %eax
LBB65_17:
	popq	%rbp
	retq
LBB65_18:
	movzbl	8(%rax,%rcx), %r8d
	shlq	$24, %r8
	movzbl	9(%rax,%rcx), %r9d
	shlq	$16, %r9
	orq	%r8, %r9
	movzbl	10(%rax,%rcx), %edx
	shlq	$8, %rdx
	orq	%r9, %rdx
	movzbl	11(%rax,%rcx), %r8d
	orq	%rdx, %r8
	testl	%r8d, %r8d
	je	LBB65_9
## %bb.19:
	movl	2(%rax,%r8), %ecx
	bswapl	%ecx
	addl	%r8d, %ecx
	jmp	LBB65_10
	.cfi_endproc
                                        ## -- End function
	.globl	_stbtt_GetGlyphSVG      ## -- Begin function stbtt_GetGlyphSVG
	.p2align	4, 0x90
_stbtt_GetGlyphSVG:                     ## @stbtt_GetGlyphSVG
	.cfi_startproc
## %bb.0:
	pushq	%rbp
	.cfi_def_cfa_offset 16
	.cfi_offset %rbp, -16
	movq	%rsp, %rbp
	.cfi_def_cfa_register %rbp
	pushq	%r15
	pushq	%r14
	pushq	%r12
	pushq	%rbx
	.cfi_offset %rbx, -48
	.cfi_offset %r12, -40
	.cfi_offset %r14, -32
	.cfi_offset %r15, -24
	xorl	%r15d, %r15d
	cmpl	$0, 52(%rdi)
	je	LBB66_3
## %bb.1:
	movq	%rdx, %r14
	movq	%rdi, %rbx
	movq	8(%rdi), %r12
	callq	_stbtt_FindSVGDoc
	testq	%rax, %rax
	je	LBB66_3
## %bb.2:
	movslq	52(%rbx), %rcx
	addq	%rcx, %r12
	movzbl	4(%rax), %ecx
	shlq	$24, %rcx
	movzbl	5(%rax), %edx
	shlq	$16, %rdx
	orq	%rcx, %rdx
	movzbl	6(%rax), %ecx
	shlq	$8, %rcx
	orq	%rdx, %rcx
	movzbl	7(%rax), %edx
	orq	%rcx, %rdx
	addq	%r12, %rdx
	movq	%rdx, (%r14)
	movl	8(%rax), %r15d
	bswapl	%r15d
LBB66_3:
	movl	%r15d, %eax
	popq	%rbx
	popq	%r12
	popq	%r14
	popq	%r15
	popq	%rbp
	retq
	.cfi_endproc
                                        ## -- End function
	.globl	_stbtt_GetCodepointSVG  ## -- Begin function stbtt_GetCodepointSVG
	.p2align	4, 0x90
_stbtt_GetCodepointSVG:                 ## @stbtt_GetCodepointSVG
	.cfi_startproc
## %bb.0:
	pushq	%rbp
	.cfi_def_cfa_offset 16
	.cfi_offset %rbp, -16
	movq	%rsp, %rbp
	.cfi_def_cfa_register %rbp
	pushq	%r15
	pushq	%r14
	pushq	%r12
	pushq	%rbx
	.cfi_offset %rbx, -48
	.cfi_offset %r12, -40
	.cfi_offset %r14, -32
	.cfi_offset %r15, -24
	movq	%rdx, %r14
	movq	%rdi, %rbx
	callq	_stbtt_FindGlyphIndex
	xorl	%r15d, %r15d
	cmpl	$0, 52(%rbx)
	je	LBB67_3
## %bb.1:
	movq	8(%rbx), %r12
	movq	%rbx, %rdi
	movl	%eax, %esi
	callq	_stbtt_FindSVGDoc
	testq	%rax, %rax
	je	LBB67_3
## %bb.2:
	movslq	52(%rbx), %rcx
	addq	%rcx, %r12
	movzbl	4(%rax), %ecx
	shlq	$24, %rcx
	movzbl	5(%rax), %edx
	shlq	$16, %rdx
	orq	%rcx, %rdx
	movzbl	6(%rax), %ecx
	shlq	$8, %rcx
	orq	%rdx, %rcx
	movzbl	7(%rax), %edx
	orq	%rcx, %rdx
	addq	%r12, %rdx
	movq	%rdx, (%r14)
	movl	8(%rax), %r15d
	bswapl	%r15d
LBB67_3:
	movl	%r15d, %eax
	popq	%rbx
	popq	%r12
	popq	%r14
	popq	%r15
	popq	%rbp
	retq
	.cfi_endproc
                                        ## -- End function
	.globl	_stbtt_GetGlyphBitmapBoxSubpixel ## -- Begin function stbtt_GetGlyphBitmapBoxSubpixel
	.p2align	4, 0x90
_stbtt_GetGlyphBitmapBoxSubpixel:       ## @stbtt_GetGlyphBitmapBoxSubpixel
	.cfi_startproc
## %bb.0:
	pushq	%rbp
	.cfi_def_cfa_offset 16
	.cfi_offset %rbp, -16
	movq	%rsp, %rbp
	.cfi_def_cfa_register %rbp
	pushq	%r15
	pushq	%r14
	pushq	%r12
	pushq	%rbx
	subq	$32, %rsp
	.cfi_offset %rbx, -48
	.cfi_offset %r12, -40
	.cfi_offset %r14, -32
	.cfi_offset %r15, -24
	movq	%r9, %r14
	movq	%r8, %r15
	movq	%rcx, %r12
	movq	%rdx, %rbx
	movss	%xmm3, -56(%rbp)        ## 4-byte Spill
	movss	%xmm2, -48(%rbp)        ## 4-byte Spill
	movss	%xmm1, -52(%rbp)        ## 4-byte Spill
	movss	%xmm0, -44(%rbp)        ## 4-byte Spill
	movl	$0, -40(%rbp)
	movl	$0, -36(%rbp)
	leaq	-40(%rbp), %rdx
	leaq	-36(%rbp), %rcx
	leaq	-64(%rbp), %r8
	leaq	-60(%rbp), %r9
	callq	_stbtt_GetGlyphBox
	testl	%eax, %eax
	je	LBB68_1
## %bb.9:
	testq	%rbx, %rbx
	movss	-48(%rbp), %xmm3        ## 4-byte Reload
                                        ## xmm3 = mem[0],zero,zero,zero
	movss	-44(%rbp), %xmm4        ## 4-byte Reload
                                        ## xmm4 = mem[0],zero,zero,zero
	je	LBB68_11
## %bb.10:
	xorps	%xmm0, %xmm0
	cvtsi2ssl	-40(%rbp), %xmm0
	mulss	%xmm4, %xmm0
	addss	%xmm3, %xmm0
	roundss	$9, %xmm0, %xmm0
	cvttss2si	%xmm0, %eax
	movl	%eax, (%rbx)
LBB68_11:
	testq	%r12, %r12
	movss	-56(%rbp), %xmm1        ## 4-byte Reload
                                        ## xmm1 = mem[0],zero,zero,zero
	movss	-52(%rbp), %xmm2        ## 4-byte Reload
                                        ## xmm2 = mem[0],zero,zero,zero
	je	LBB68_13
## %bb.12:
	xorl	%eax, %eax
	subl	-60(%rbp), %eax
	xorps	%xmm0, %xmm0
	cvtsi2ssl	%eax, %xmm0
	mulss	%xmm2, %xmm0
	addss	%xmm1, %xmm0
	roundss	$9, %xmm0, %xmm0
	cvttss2si	%xmm0, %eax
	movl	%eax, (%r12)
LBB68_13:
	testq	%r15, %r15
	je	LBB68_15
## %bb.14:
	xorps	%xmm0, %xmm0
	cvtsi2ssl	-64(%rbp), %xmm0
	mulss	%xmm4, %xmm0
	addss	%xmm3, %xmm0
	roundss	$10, %xmm0, %xmm0
	cvttss2si	%xmm0, %eax
	movl	%eax, (%r15)
LBB68_15:
	testq	%r14, %r14
	je	LBB68_17
## %bb.16:
	xorl	%eax, %eax
	subl	-36(%rbp), %eax
	xorps	%xmm0, %xmm0
	cvtsi2ssl	%eax, %xmm0
	mulss	%xmm2, %xmm0
	addss	%xmm1, %xmm0
	roundss	$10, %xmm0, %xmm0
	cvttss2si	%xmm0, %eax
	movl	%eax, (%r14)
	jmp	LBB68_17
LBB68_1:
	testq	%rbx, %rbx
	je	LBB68_3
## %bb.2:
	movl	$0, (%rbx)
LBB68_3:
	testq	%r12, %r12
	je	LBB68_5
## %bb.4:
	movl	$0, (%r12)
LBB68_5:
	testq	%r15, %r15
	je	LBB68_7
## %bb.6:
	movl	$0, (%r15)
LBB68_7:
	testq	%r14, %r14
	je	LBB68_17
## %bb.8:
	movl	$0, (%r14)
LBB68_17:
	addq	$32, %rsp
	popq	%rbx
	popq	%r12
	popq	%r14
	popq	%r15
	popq	%rbp
	retq
	.cfi_endproc
                                        ## -- End function
	.globl	_stbtt_GetGlyphBitmapBox ## -- Begin function stbtt_GetGlyphBitmapBox
	.p2align	4, 0x90
_stbtt_GetGlyphBitmapBox:               ## @stbtt_GetGlyphBitmapBox
	.cfi_startproc
## %bb.0:
	pushq	%rbp
	.cfi_def_cfa_offset 16
	.cfi_offset %rbp, -16
	movq	%rsp, %rbp
	.cfi_def_cfa_register %rbp
	xorps	%xmm2, %xmm2
	xorps	%xmm3, %xmm3
	popq	%rbp
	jmp	_stbtt_GetGlyphBitmapBoxSubpixel ## TAILCALL
	.cfi_endproc
                                        ## -- End function
	.globl	_stbtt_GetCodepointBitmapBoxSubpixel ## -- Begin function stbtt_GetCodepointBitmapBoxSubpixel
	.p2align	4, 0x90
_stbtt_GetCodepointBitmapBoxSubpixel:   ## @stbtt_GetCodepointBitmapBoxSubpixel
	.cfi_startproc
## %bb.0:
	pushq	%rbp
	.cfi_def_cfa_offset 16
	.cfi_offset %rbp, -16
	movq	%rsp, %rbp
	.cfi_def_cfa_register %rbp
	pushq	%r15
	pushq	%r14
	pushq	%r13
	pushq	%r12
	pushq	%rbx
	subq	$24, %rsp
	.cfi_offset %rbx, -56
	.cfi_offset %r12, -48
	.cfi_offset %r13, -40
	.cfi_offset %r14, -32
	.cfi_offset %r15, -24
	movq	%r9, %r14
	movq	%r8, %r15
	movq	%rcx, %r12
	movq	%rdx, %r13
	movss	%xmm3, -56(%rbp)        ## 4-byte Spill
	movss	%xmm2, -52(%rbp)        ## 4-byte Spill
	movss	%xmm1, -48(%rbp)        ## 4-byte Spill
	movss	%xmm0, -44(%rbp)        ## 4-byte Spill
	movq	%rdi, %rbx
	callq	_stbtt_FindGlyphIndex
	movq	%rbx, %rdi
	movl	%eax, %esi
	movss	-44(%rbp), %xmm0        ## 4-byte Reload
                                        ## xmm0 = mem[0],zero,zero,zero
	movss	-48(%rbp), %xmm1        ## 4-byte Reload
                                        ## xmm1 = mem[0],zero,zero,zero
	movss	-52(%rbp), %xmm2        ## 4-byte Reload
                                        ## xmm2 = mem[0],zero,zero,zero
	movss	-56(%rbp), %xmm3        ## 4-byte Reload
                                        ## xmm3 = mem[0],zero,zero,zero
	movq	%r13, %rdx
	movq	%r12, %rcx
	movq	%r15, %r8
	movq	%r14, %r9
	addq	$24, %rsp
	popq	%rbx
	popq	%r12
	popq	%r13
	popq	%r14
	popq	%r15
	popq	%rbp
	jmp	_stbtt_GetGlyphBitmapBoxSubpixel ## TAILCALL
	.cfi_endproc
                                        ## -- End function
	.globl	_stbtt_GetCodepointBitmapBox ## -- Begin function stbtt_GetCodepointBitmapBox
	.p2align	4, 0x90
_stbtt_GetCodepointBitmapBox:           ## @stbtt_GetCodepointBitmapBox
	.cfi_startproc
## %bb.0:
	pushq	%rbp
	.cfi_def_cfa_offset 16
	.cfi_offset %rbp, -16
	movq	%rsp, %rbp
	.cfi_def_cfa_register %rbp
	pushq	%r15
	pushq	%r14
	pushq	%r13
	pushq	%r12
	pushq	%rbx
	pushq	%rax
	.cfi_offset %rbx, -56
	.cfi_offset %r12, -48
	.cfi_offset %r13, -40
	.cfi_offset %r14, -32
	.cfi_offset %r15, -24
	movq	%r9, %r14
	movq	%r8, %r15
	movq	%rcx, %r12
	movq	%rdx, %r13
	movss	%xmm1, -48(%rbp)        ## 4-byte Spill
	movss	%xmm0, -44(%rbp)        ## 4-byte Spill
	movq	%rdi, %rbx
	callq	_stbtt_FindGlyphIndex
	xorps	%xmm2, %xmm2
	xorps	%xmm3, %xmm3
	movq	%rbx, %rdi
	movl	%eax, %esi
	movss	-44(%rbp), %xmm0        ## 4-byte Reload
                                        ## xmm0 = mem[0],zero,zero,zero
	movss	-48(%rbp), %xmm1        ## 4-byte Reload
                                        ## xmm1 = mem[0],zero,zero,zero
	movq	%r13, %rdx
	movq	%r12, %rcx
	movq	%r15, %r8
	movq	%r14, %r9
	addq	$8, %rsp
	popq	%rbx
	popq	%r12
	popq	%r13
	popq	%r14
	popq	%r15
	popq	%rbp
	jmp	_stbtt_GetGlyphBitmapBoxSubpixel ## TAILCALL
	.cfi_endproc
                                        ## -- End function
	.section	__TEXT,__literal16,16byte_literals
	.p2align	4               ## -- Begin function stbtt_Rasterize
LCPI72_0:
	.long	2147483648              ## float -0
	.long	2147483648              ## float -0
	.long	2147483648              ## float -0
	.long	2147483648              ## float -0
LCPI72_4:
	.long	2147483647              ## float NaN
	.long	2147483647              ## float NaN
	.long	2147483647              ## float NaN
	.long	2147483647              ## float NaN
	.section	__TEXT,__literal4,4byte_literals
	.p2align	2
LCPI72_1:
	.long	1065353216              ## float 1
LCPI72_3:
	.long	1056964608              ## float 0.5
LCPI72_5:
	.long	1065437102              ## float 1.00999999
LCPI72_6:
	.long	3156465418              ## float -0.00999999977
LCPI72_7:
	.long	1132396544              ## float 255
	.section	__TEXT,__literal8,8byte_literals
	.p2align	2
LCPI72_2:
	.long	1065353216              ## float 1
	.long	3212836864              ## float -1
	.section	__TEXT,__text,regular,pure_instructions
	.globl	_stbtt_Rasterize
	.p2align	4, 0x90
_stbtt_Rasterize:                       ## @stbtt_Rasterize
	.cfi_startproc
## %bb.0:
	pushq	%rbp
	.cfi_def_cfa_offset 16
	.cfi_offset %rbp, -16
	movq	%rsp, %rbp
	.cfi_def_cfa_register %rbp
	pushq	%r15
	pushq	%r14
	pushq	%r13
	pushq	%r12
	pushq	%rbx
	subq	$808, %rsp              ## imm = 0x328
	.cfi_offset %rbx, -56
	.cfi_offset %r12, -48
	.cfi_offset %r13, -40
	.cfi_offset %r14, -32
	.cfi_offset %r15, -24
	movl	%r9d, -580(%rbp)        ## 4-byte Spill
                                        ## kill: def $r8d killed $r8d def $r8
	movq	%r8, -744(%rbp)         ## 8-byte Spill
	movdqa	%xmm4, -800(%rbp)       ## 16-byte Spill
	movdqa	%xmm3, -832(%rbp)       ## 16-byte Spill
	movdqa	%xmm2, -720(%rbp)       ## 16-byte Spill
	movq	%rsi, -656(%rbp)        ## 8-byte Spill
	movss	%xmm0, -592(%rbp)       ## 4-byte Spill
	movq	___stack_chk_guard@GOTPCREL(%rip), %rax
	movq	(%rax), %rax
	movq	%rax, -48(%rbp)
	movl	$0, -576(%rbp)
	testl	%edx, %edx
	jle	LBB72_177
## %bb.1:
	movl	%ecx, %r12d
	movq	%rdi, %r14
	movl	%edx, %r8d
	leaq	-1(%r8), %rcx
	movl	%r8d, %eax
	andl	$3, %eax
	cmpq	$3, %rcx
	jae	LBB72_3
## %bb.2:
	xorl	%ecx, %ecx
	xorl	%r13d, %r13d
	jmp	LBB72_5
LBB72_3:
	movq	-656(%rbp), %rcx        ## 8-byte Reload
	leaq	54(%rcx), %rdx
	movq	%r8, %rsi
	subq	%rax, %rsi
	xorl	%ecx, %ecx
	xorl	%r13d, %r13d
	.p2align	4, 0x90
LBB72_4:                                ## =>This Inner Loop Header: Depth=1
	xorl	%edi, %edi
	cmpb	$1, -42(%rdx)
	sete	%dil
	addl	%r13d, %edi
	xorl	%ebx, %ebx
	cmpb	$1, -28(%rdx)
	sete	%bl
	addl	%edi, %ebx
	xorl	%edi, %edi
	cmpb	$1, -14(%rdx)
	sete	%dil
	addl	%ebx, %edi
	xorl	%r13d, %r13d
	cmpb	$1, (%rdx)
	sete	%r13b
	addl	%edi, %r13d
	addq	$4, %rcx
	addq	$56, %rdx
	cmpq	%rcx, %rsi
	jne	LBB72_4
LBB72_5:
	movq	%r8, -600(%rbp)         ## 8-byte Spill
	testq	%rax, %rax
	je	LBB72_8
## %bb.6:
	movq	%rcx, %rdx
	shlq	$4, %rdx
	subq	%rcx, %rdx
	subq	%rcx, %rdx
	movq	-656(%rbp), %rcx        ## 8-byte Reload
	leaq	12(%rcx,%rdx), %rcx
	negq	%rax
	.p2align	4, 0x90
LBB72_7:                                ## =>This Inner Loop Header: Depth=1
	xorl	%edx, %edx
	cmpb	$1, (%rcx)
	sete	%dl
	addl	%edx, %r13d
	addq	$14, %rcx
	incq	%rax
	jne	LBB72_7
LBB72_8:
	testl	%r13d, %r13d
	je	LBB72_177
## %bb.9:
	movl	%r13d, %ebx
	leaq	(,%rbx,4), %rdi
	movaps	%xmm1, -736(%rbp)       ## 16-byte Spill
	callq	_malloc
	movaps	-736(%rbp), %xmm1       ## 16-byte Reload
	testq	%rax, %rax
	je	LBB72_177
## %bb.10:
	movq	%rax, %r15
	movq	%rbx, -608(%rbp)        ## 8-byte Spill
	movl	%r12d, -612(%rbp)       ## 4-byte Spill
	movq	%r14, -752(%rbp)        ## 8-byte Spill
	movaps	-720(%rbp), %xmm0       ## 16-byte Reload
	minss	%xmm1, %xmm0
	movss	-592(%rbp), %xmm1       ## 4-byte Reload
                                        ## xmm1 = mem[0],zero,zero,zero
	divss	%xmm0, %xmm1
	mulss	%xmm1, %xmm1
	movss	%xmm1, -592(%rbp)       ## 4-byte Spill
	xorl	%eax, %eax
	leaq	-576(%rbp), %r14
	xorl	%ebx, %ebx
	movl	$0, -588(%rbp)          ## 4-byte Folded Spill
	xorl	%edi, %edi
	movq	%r15, -696(%rbp)        ## 8-byte Spill
	movq	%r14, -624(%rbp)        ## 8-byte Spill
	.p2align	4, 0x90
LBB72_11:                               ## =>This Loop Header: Depth=1
                                        ##     Child Loop BB72_15 Depth 2
	cmpl	$1, %ebx
	jne	LBB72_14
## %bb.12:                              ##   in Loop: Header=BB72_11 Depth=1
	movslq	%eax, %rdi
	shlq	$3, %rdi
	callq	_malloc
	testq	%rax, %rax
	je	LBB72_34
## %bb.13:                              ##   in Loop: Header=BB72_11 Depth=1
	movq	%rax, %rdi
LBB72_14:                               ##   in Loop: Header=BB72_11 Depth=1
	movl	%ebx, -584(%rbp)        ## 4-byte Spill
	movl	$0, -576(%rbp)
	movl	$-1, %r14d
	xorps	%xmm1, %xmm1
	movq	-600(%rbp), %r15        ## 8-byte Reload
	movq	-656(%rbp), %r12        ## 8-byte Reload
	xorps	%xmm0, %xmm0
	movq	%rdi, -664(%rbp)        ## 8-byte Spill
	leaq	LJTI72_0(%rip), %rbx
	.p2align	4, 0x90
LBB72_15:                               ##   Parent Loop BB72_11 Depth=1
                                        ## =>  This Inner Loop Header: Depth=2
	movzbl	12(%r12), %eax
	decb	%al
	cmpb	$3, %al
	ja	LBB72_27
## %bb.16:                              ##   in Loop: Header=BB72_15 Depth=2
	movzbl	%al, %eax
	movslq	(%rbx,%rax,4), %rax
	addq	%rbx, %rax
	jmpq	*%rax
LBB72_17:                               ##   in Loop: Header=BB72_15 Depth=2
	movl	-576(%rbp), %eax
	testl	%r14d, %r14d
	js	LBB72_19
## %bb.18:                              ##   in Loop: Header=BB72_15 Depth=2
	movl	%eax, %ecx
	subl	-588(%rbp), %ecx        ## 4-byte Folded Reload
	movslq	%r14d, %rdx
	movq	-696(%rbp), %rsi        ## 8-byte Reload
	movl	%ecx, (%rsi,%rdx,4)
LBB72_19:                               ##   in Loop: Header=BB72_15 Depth=2
	movswl	(%r12), %ecx
	xorps	%xmm0, %xmm0
	cvtsi2ssl	%ecx, %xmm0
	movswl	2(%r12), %ecx
	xorps	%xmm1, %xmm1
	cvtsi2ssl	%ecx, %xmm1
	incl	%r14d
	leal	1(%rax), %ecx
	movl	%ecx, -576(%rbp)
	testq	%rdi, %rdi
	je	LBB72_26
## %bb.20:                              ##   in Loop: Header=BB72_15 Depth=2
	movslq	%eax, %rcx
	movss	%xmm0, (%rdi,%rcx,8)
	movss	%xmm1, 4(%rdi,%rcx,8)
LBB72_26:                               ##   in Loop: Header=BB72_15 Depth=2
                                        ## kill: def $eax killed $eax killed $rax
	movl	%eax, -588(%rbp)        ## 4-byte Spill
	jmp	LBB72_27
	.p2align	4, 0x90
LBB72_21:                               ##   in Loop: Header=BB72_15 Depth=2
	movswl	4(%r12), %eax
	xorps	%xmm2, %xmm2
	cvtsi2ssl	%eax, %xmm2
	movswl	6(%r12), %eax
	xorps	%xmm3, %xmm3
	cvtsi2ssl	%eax, %xmm3
	movswl	(%r12), %eax
	xorps	%xmm4, %xmm4
	cvtsi2ssl	%eax, %xmm4
	movswl	2(%r12), %eax
	xorps	%xmm5, %xmm5
	cvtsi2ssl	%eax, %xmm5
	leaq	-576(%rbp), %rsi
	movss	-592(%rbp), %xmm6       ## 4-byte Reload
                                        ## xmm6 = mem[0],zero,zero,zero
	xorl	%edx, %edx
	callq	_stbtt__tesselate_curve
	jmp	LBB72_23
	.p2align	4, 0x90
LBB72_22:                               ##   in Loop: Header=BB72_15 Depth=2
	movswl	4(%r12), %eax
	xorps	%xmm2, %xmm2
	cvtsi2ssl	%eax, %xmm2
	movswl	6(%r12), %eax
	xorps	%xmm3, %xmm3
	cvtsi2ssl	%eax, %xmm3
	movswl	8(%r12), %eax
	xorps	%xmm4, %xmm4
	cvtsi2ssl	%eax, %xmm4
	movswl	10(%r12), %eax
	xorps	%xmm5, %xmm5
	cvtsi2ssl	%eax, %xmm5
	movswl	(%r12), %eax
	xorps	%xmm6, %xmm6
	cvtsi2ssl	%eax, %xmm6
	movswl	2(%r12), %eax
	xorps	%xmm7, %xmm7
	cvtsi2ssl	%eax, %xmm7
	movss	-592(%rbp), %xmm8       ## 4-byte Reload
                                        ## xmm8 = mem[0],zero,zero,zero
	movss	%xmm8, (%rsp)
	leaq	-576(%rbp), %rsi
	xorl	%edx, %edx
	callq	_stbtt__tesselate_cubic
LBB72_23:                               ##   in Loop: Header=BB72_15 Depth=2
	movq	-664(%rbp), %rdi        ## 8-byte Reload
	movswl	(%r12), %eax
	xorps	%xmm0, %xmm0
	cvtsi2ssl	%eax, %xmm0
	movswl	2(%r12), %eax
	xorps	%xmm1, %xmm1
	cvtsi2ssl	%eax, %xmm1
	jmp	LBB72_27
LBB72_24:                               ##   in Loop: Header=BB72_15 Depth=2
	movswl	(%r12), %eax
	xorps	%xmm0, %xmm0
	cvtsi2ssl	%eax, %xmm0
	movswl	2(%r12), %eax
	xorps	%xmm1, %xmm1
	cvtsi2ssl	%eax, %xmm1
	movslq	-576(%rbp), %rax
	leal	1(%rax), %ecx
	movl	%ecx, -576(%rbp)
	testq	%rdi, %rdi
	je	LBB72_27
## %bb.25:                              ##   in Loop: Header=BB72_15 Depth=2
	movss	%xmm0, (%rdi,%rax,8)
	movss	%xmm1, 4(%rdi,%rax,8)
	.p2align	4, 0x90
LBB72_27:                               ##   in Loop: Header=BB72_15 Depth=2
	addq	$14, %r12
	decq	%r15
	jne	LBB72_15
## %bb.28:                              ##   in Loop: Header=BB72_11 Depth=1
	movl	-576(%rbp), %eax
	movl	%eax, %ecx
	subl	-588(%rbp), %ecx        ## 4-byte Folded Reload
	movslq	%r14d, %rdx
	movq	-696(%rbp), %r15        ## 8-byte Reload
	movl	%ecx, (%r15,%rdx,4)
	movl	-584(%rbp), %ebx        ## 4-byte Reload
	incl	%ebx
	cmpl	$2, %ebx
	jb	LBB72_11
## %bb.29:
	testq	%rdi, %rdi
	je	LBB72_177
## %bb.30:
	cmpl	$0, -580(%rbp)          ## 4-byte Folded Reload
	je	LBB72_32
## %bb.31:
	movaps	-720(%rbp), %xmm0       ## 16-byte Reload
	xorps	LCPI72_0(%rip), %xmm0
	movaps	%xmm0, -720(%rbp)       ## 16-byte Spill
LBB72_32:
	movq	-608(%rbp), %rdi        ## 8-byte Reload
	cmpl	$8, %r13d
	jae	LBB72_35
## %bb.33:
	xorl	%eax, %eax
	xorl	%ecx, %ecx
	jmp	LBB72_43
LBB72_34:
	movq	%r15, %rdi
	jmp	LBB72_176
LBB72_35:
	movl	%edi, %eax
	andl	$2147483640, %eax       ## imm = 0x7FFFFFF8
	leaq	-8(%rax), %rsi
	movq	%rsi, %rdx
	shrq	$3, %rdx
	incq	%rdx
	movl	%edx, %ecx
	andl	$3, %ecx
	cmpq	$24, %rsi
	jae	LBB72_37
## %bb.36:
	xorps	%xmm0, %xmm0
	xorl	%edx, %edx
	xorps	%xmm1, %xmm1
	testq	%rcx, %rcx
	jne	LBB72_40
	jmp	LBB72_42
LBB72_37:
	movl	$1, %esi
	subq	%rdx, %rsi
	leaq	-1(%rcx,%rsi), %rsi
	xorps	%xmm0, %xmm0
	xorl	%edx, %edx
	xorps	%xmm1, %xmm1
	.p2align	4, 0x90
LBB72_38:                               ## =>This Inner Loop Header: Depth=1
	movdqu	(%r15,%rdx,4), %xmm2
	paddd	%xmm0, %xmm2
	movdqu	16(%r15,%rdx,4), %xmm0
	paddd	%xmm1, %xmm0
	movdqu	32(%r15,%rdx,4), %xmm1
	movdqu	48(%r15,%rdx,4), %xmm3
	movdqu	64(%r15,%rdx,4), %xmm4
	paddd	%xmm1, %xmm4
	paddd	%xmm2, %xmm4
	movdqu	80(%r15,%rdx,4), %xmm2
	paddd	%xmm3, %xmm2
	paddd	%xmm0, %xmm2
	movdqu	96(%r15,%rdx,4), %xmm0
	paddd	%xmm4, %xmm0
	movdqu	112(%r15,%rdx,4), %xmm1
	paddd	%xmm2, %xmm1
	addq	$32, %rdx
	addq	$4, %rsi
	jne	LBB72_38
## %bb.39:
	testq	%rcx, %rcx
	je	LBB72_42
LBB72_40:
	leaq	16(%r15,%rdx,4), %rdx
	negq	%rcx
	.p2align	4, 0x90
LBB72_41:                               ## =>This Inner Loop Header: Depth=1
	movdqu	-16(%rdx), %xmm2
	paddd	%xmm2, %xmm0
	movdqu	(%rdx), %xmm2
	paddd	%xmm2, %xmm1
	addq	$32, %rdx
	incq	%rcx
	jne	LBB72_41
LBB72_42:
	paddd	%xmm1, %xmm0
	pshufd	$78, %xmm0, %xmm1       ## xmm1 = xmm0[2,3,0,1]
	paddd	%xmm0, %xmm1
	pshufd	$229, %xmm1, %xmm0      ## xmm0 = xmm1[1,1,2,3]
	paddd	%xmm1, %xmm0
	movd	%xmm0, %ecx
	cmpq	%rdi, %rax
	je	LBB72_44
	.p2align	4, 0x90
LBB72_43:                               ## =>This Inner Loop Header: Depth=1
	addl	(%r15,%rax,4), %ecx
	incq	%rax
	cmpq	%rax, %rdi
	jne	LBB72_43
LBB72_44:
	movslq	%ecx, %rax
	shlq	$2, %rax
	leaq	20(%rax,%rax,4), %rdi
	callq	_malloc
	testq	%rax, %rax
	je	LBB72_175
## %bb.45:
	movq	%rax, %rsi
	movaps	-832(%rbp), %xmm0       ## 16-byte Reload
	insertps	$16, -800(%rbp), %xmm0 ## 16-byte Folded Reload
                                        ## xmm0 = xmm0[0],mem[0],xmm0[2,3]
	movddup	%xmm0, %xmm0            ## xmm0 = xmm0[0,0]
	movaps	-736(%rbp), %xmm1       ## 16-byte Reload
	insertps	$16, -720(%rbp), %xmm1 ## 16-byte Folded Reload
                                        ## xmm1 = xmm1[0],mem[0],xmm1[2,3]
	movddup	%xmm1, %xmm1            ## xmm1 = xmm1[0,0]
	movq	-664(%rbp), %rax        ## 8-byte Reload
	leaq	4(%rax), %r8
	xorl	%r10d, %r10d
	movabsq	$4294967296, %r11       ## imm = 0x100000000
	xorl	%r15d, %r15d
	xorl	%r9d, %r9d
	movq	%rsi, -632(%rbp)        ## 8-byte Spill
	.p2align	4, 0x90
LBB72_46:                               ## =>This Loop Header: Depth=1
                                        ##     Child Loop BB72_48 Depth 2
	movq	-696(%rbp), %rax        ## 8-byte Reload
	movl	(%rax,%r10,4), %r12d
	testl	%r12d, %r12d
	jle	LBB72_57
## %bb.47:                              ##   in Loop: Header=BB72_46 Depth=1
	movslq	%r9d, %rax
	movq	-664(%rbp), %rcx        ## 8-byte Reload
	leaq	(%rcx,%rax,8), %r13
	leal	-1(%r12), %edx
	leaq	(%r8,%rax,8), %r14
	xorl	%ebx, %ebx
	xorl	%ecx, %ecx
	.p2align	4, 0x90
LBB72_48:                               ##   Parent Loop BB72_46 Depth=1
                                        ## =>  This Inner Loop Header: Depth=2
	movslq	%edx, %rdi
	movss	4(%r13,%rdi,8), %xmm2   ## xmm2 = mem[0],zero,zero,zero
	movss	(%r14,%rcx,8), %xmm3    ## xmm3 = mem[0],zero,zero,zero
	ucomiss	%xmm3, %xmm2
	jne	LBB72_49
	jnp	LBB72_56
LBB72_49:                               ##   in Loop: Header=BB72_48 Depth=2
	movslq	%r15d, %rax
	leaq	(%rax,%rax,4), %rax
	movl	$0, 16(%rsi,%rax,4)
	cmpl	$0, -580(%rbp)          ## 4-byte Folded Reload
	je	LBB72_52
## %bb.50:                              ##   in Loop: Header=BB72_48 Depth=2
	ucomiss	%xmm3, %xmm2
	jbe	LBB72_54
LBB72_53:                               ##   in Loop: Header=BB72_48 Depth=2
	leaq	16(%rsi,%rax,4), %rdi
	movl	$1, (%rdi)
	movq	%rbx, %rdi
	sarq	$32, %rdi
	movq	%rbx, %rsi
	sarq	$29, %rsi
	movss	4(%r13,%rsi), %xmm2     ## xmm2 = mem[0],zero,zero,zero
	movq	-632(%rbp), %rsi        ## 8-byte Reload
	jmp	LBB72_55
LBB72_52:                               ##   in Loop: Header=BB72_48 Depth=2
	ucomiss	%xmm2, %xmm3
	ja	LBB72_53
LBB72_54:                               ##   in Loop: Header=BB72_48 Depth=2
	movl	%ecx, %edx
LBB72_55:                               ##   in Loop: Header=BB72_48 Depth=2
	movslq	%edx, %rdx
	movsd	(%r13,%rdx,8), %xmm3    ## xmm3 = mem[0],zero
	insertps	$32, (%r13,%rdi,8), %xmm3 ## xmm3 = xmm3[0,1],mem[0],xmm3[3]
	insertps	$48, %xmm2, %xmm3 ## xmm3 = xmm3[0,1,2],xmm2[0]
	mulps	%xmm1, %xmm3
	addps	%xmm0, %xmm3
	movups	%xmm3, (%rsi,%rax,4)
	incl	%r15d
LBB72_56:                               ##   in Loop: Header=BB72_48 Depth=2
	movl	%ecx, %edx
	incq	%rcx
	addq	%r11, %rbx
	cmpq	%rcx, %r12
	jne	LBB72_48
LBB72_57:                               ##   in Loop: Header=BB72_46 Depth=1
	addl	%r12d, %r9d
	incq	%r10
	cmpq	-608(%rbp), %r10        ## 8-byte Folded Reload
	jne	LBB72_46
## %bb.58:
	movq	%rsi, %rdi
	movl	%r15d, %esi
	callq	_stbtt__sort_edges_quicksort
	movq	-632(%rbp), %rsi        ## 8-byte Reload
	cmpl	$2, %r15d
	movq	-752(%rbp), %r12        ## 8-byte Reload
	movl	-612(%rbp), %r13d       ## 4-byte Reload
	jl	LBB72_66
## %bb.59:
	movl	%r15d, %r8d
	movl	$1, %ecx
	movq	%rsi, %rbx
	.p2align	4, 0x90
LBB72_60:                               ## =>This Loop Header: Depth=1
                                        ##     Child Loop BB72_61 Depth 2
	leaq	(%rcx,%rcx,4), %rdx
	movl	(%rsi,%rdx,4), %r9d
	movss	4(%rsi,%rdx,4), %xmm0   ## xmm0 = mem[0],zero,zero,zero
	movl	16(%rsi,%rdx,4), %edi
	movl	%edi, -568(%rbp)
	movq	8(%rsi,%rdx,4), %rdx
	movq	%rdx, -576(%rbp)
	movq	%rbx, %rdx
	movq	%rcx, %rdi
	.p2align	4, 0x90
LBB72_61:                               ##   Parent Loop BB72_60 Depth=1
                                        ## =>  This Inner Loop Header: Depth=2
	movss	4(%rdx), %xmm1          ## xmm1 = mem[0],zero,zero,zero
	ucomiss	%xmm0, %xmm1
	jbe	LBB72_63
## %bb.62:                              ##   in Loop: Header=BB72_61 Depth=2
	decq	%rdi
	movl	16(%rdx), %eax
	movl	%eax, 36(%rdx)
	movq	(%rdx), %rax
	movq	8(%rdx), %rsi
	movq	%rsi, 28(%rdx)
	movq	-632(%rbp), %rsi        ## 8-byte Reload
	movq	%rax, 20(%rdx)
	addq	$-20, %rdx
	testq	%rdi, %rdi
	jg	LBB72_61
LBB72_63:                               ##   in Loop: Header=BB72_60 Depth=1
	movl	%edi, %eax
	cmpq	%rax, %rcx
	je	LBB72_65
## %bb.64:                              ##   in Loop: Header=BB72_60 Depth=1
	movslq	%edi, %rax
	leaq	(%rax,%rax,4), %rax
	movl	%r9d, (%rsi,%rax,4)
	movss	%xmm0, 4(%rsi,%rax,4)
	movl	-568(%rbp), %edx
	movl	%edx, 16(%rsi,%rax,4)
	movq	-576(%rbp), %rdx
	movq	%rdx, 8(%rsi,%rax,4)
LBB72_65:                               ##   in Loop: Header=BB72_60 Depth=1
	incq	%rcx
	addq	$20, %rbx
	cmpq	%r8, %rcx
	jne	LBB72_60
LBB72_66:
	movq	$0, -672(%rbp)
	movslq	(%r12), %r14
	cmpq	$65, %r14
	jl	LBB72_68
## %bb.67:
	leaq	4(,%r14,8), %rdi
	callq	_malloc
	movq	-632(%rbp), %rsi        ## 8-byte Reload
	movq	%rax, -624(%rbp)        ## 8-byte Spill
LBB72_68:
	movq	-744(%rbp), %rdx        ## 8-byte Reload
	movl	4(%r12), %eax
	leal	(%rax,%rdx), %ecx
	xorps	%xmm0, %xmm0
	cvtsi2ssl	%ecx, %xmm0
	addss	LCPI72_1(%rip), %xmm0
	movslq	%r15d, %rcx
	leaq	(%rcx,%rcx,4), %rcx
	movss	%xmm0, 4(%rsi,%rcx,4)
	testl	%eax, %eax
	jle	LBB72_172
## %bb.69:
	movq	-624(%rbp), %rax        ## 8-byte Reload
	leaq	(%rax,%r14,4), %r15
	xorps	%xmm0, %xmm0
	cvtsi2ssl	%r13d, %xmm0
	movss	%xmm0, -776(%rbp)       ## 4-byte Spill
	leaq	4(%r15), %rcx
	movq	%rcx, -808(%rbp)        ## 8-byte Spill
	leaq	4(%rax), %rax
	movq	%rax, -840(%rbp)        ## 8-byte Spill
	xorl	%ebx, %ebx
	movq	-632(%rbp), %rax        ## 8-byte Reload
	movq	%rax, -760(%rbp)        ## 8-byte Spill
	movl	%edx, %eax
	movl	$0, -736(%rbp)          ## 4-byte Folded Spill
	xorl	%edi, %edi
	xorl	%r8d, %r8d
	xorl	%r9d, %r9d
	movq	%r15, -768(%rbp)        ## 8-byte Spill
	.p2align	4, 0x90
LBB72_70:                               ## =>This Loop Header: Depth=1
                                        ##     Child Loop BB72_72 Depth 2
                                        ##     Child Loop BB72_80 Depth 2
                                        ##     Child Loop BB72_98 Depth 2
                                        ##       Child Loop BB72_126 Depth 3
                                        ##       Child Loop BB72_154 Depth 3
                                        ##     Child Loop BB72_164 Depth 2
                                        ##     Child Loop BB72_168 Depth 2
	movq	%rdi, -688(%rbp)        ## 8-byte Spill
	movq	%r8, -680(%rbp)         ## 8-byte Spill
	movq	%r9, %r13
	movl	%eax, -772(%rbp)        ## 4-byte Spill
	xorps	%xmm0, %xmm0
	cvtsi2ssl	%eax, %xmm0
	movss	%xmm0, -608(%rbp)       ## 4-byte Spill
	movslq	%r14d, %rsi
	shlq	$2, %rsi
	movq	-624(%rbp), %rdi        ## 8-byte Reload
	callq	___bzero
	movslq	(%r12), %rax
	leaq	4(,%rax,4), %rsi
	movq	%r15, %rdi
	callq	___bzero
	testq	%rbx, %rbx
	je	LBB72_77
## %bb.71:                              ##   in Loop: Header=BB72_70 Depth=1
	leaq	-672(%rbp), %rax
	movq	-624(%rbp), %r12        ## 8-byte Reload
	xorps	%xmm15, %xmm15
	leaq	LCPI72_2(%rip), %r14
	movq	-760(%rbp), %r15        ## 8-byte Reload
	movq	%r13, %r9
	movq	-680(%rbp), %rsi        ## 8-byte Reload
	movss	-608(%rbp), %xmm1       ## 4-byte Reload
                                        ## xmm1 = mem[0],zero,zero,zero
	movq	-688(%rbp), %r13        ## 8-byte Reload
	.p2align	4, 0x90
LBB72_72:                               ##   Parent Loop BB72_70 Depth=1
                                        ## =>  This Inner Loop Header: Depth=2
	ucomiss	28(%rbx), %xmm1
	jae	LBB72_74
## %bb.73:                              ##   in Loop: Header=BB72_72 Depth=2
	movq	%rbx, %rax
	jmp	LBB72_76
	.p2align	4, 0x90
LBB72_74:                               ##   in Loop: Header=BB72_72 Depth=2
	movq	(%rbx), %rcx
	movq	%rcx, (%rax)
	movss	20(%rbx), %xmm0         ## xmm0 = mem[0],zero,zero,zero
	ucomiss	%xmm15, %xmm0
	jne	LBB72_75
	jnp	LBB72_181
LBB72_75:                               ##   in Loop: Header=BB72_72 Depth=2
	movl	$0, 20(%rbx)
	movq	%rsi, (%rbx)
	movq	%rbx, %rsi
LBB72_76:                               ##   in Loop: Header=BB72_72 Depth=2
	movq	(%rax), %rbx
	testq	%rbx, %rbx
	jne	LBB72_72
	jmp	LBB72_78
	.p2align	4, 0x90
LBB72_77:                               ##   in Loop: Header=BB72_70 Depth=1
	movq	-624(%rbp), %r12        ## 8-byte Reload
	xorps	%xmm15, %xmm15
	leaq	LCPI72_2(%rip), %r14
	movq	-760(%rbp), %r15        ## 8-byte Reload
	movq	%r13, %r9
	movq	-680(%rbp), %rsi        ## 8-byte Reload
	movss	-608(%rbp), %xmm1       ## 4-byte Reload
                                        ## xmm1 = mem[0],zero,zero,zero
	movq	-688(%rbp), %r13        ## 8-byte Reload
LBB72_78:                               ##   in Loop: Header=BB72_70 Depth=1
	movaps	%xmm1, %xmm2
	addss	LCPI72_1(%rip), %xmm2
	movss	4(%r15), %xmm0          ## xmm0 = mem[0],zero,zero,zero
	movss	%xmm2, -600(%rbp)       ## 4-byte Spill
	ucomiss	%xmm0, %xmm2
	jb	LBB72_96
## %bb.79:                              ##   in Loop: Header=BB72_70 Depth=1
	cmpl	$0, -744(%rbp)          ## 4-byte Folded Reload
	setne	%al
	cmpl	$0, -736(%rbp)          ## 4-byte Folded Reload
	sete	%bl
	andb	%al, %bl
	.p2align	4, 0x90
LBB72_80:                               ##   Parent Loop BB72_70 Depth=1
                                        ## =>  This Inner Loop Header: Depth=2
	ucomiss	12(%r15), %xmm0
	jne	LBB72_81
	jnp	LBB72_94
LBB72_81:                               ##   in Loop: Header=BB72_80 Depth=2
	testq	%rsi, %rsi
	je	LBB72_83
## %bb.82:                              ##   in Loop: Header=BB72_80 Depth=2
	movq	%rsi, %rax
	movq	(%rsi), %rsi
	testq	%rax, %rax
	jne	LBB72_88
	jmp	LBB72_183
	.p2align	4, 0x90
LBB72_83:                               ##   in Loop: Header=BB72_80 Depth=2
	testl	%r9d, %r9d
	je	LBB72_85
## %bb.84:                              ##   in Loop: Header=BB72_80 Depth=2
	decl	%r9d
	jmp	LBB72_87
LBB72_85:                               ##   in Loop: Header=BB72_80 Depth=2
	movl	$25608, %edi            ## imm = 0x6408
	callq	_malloc
	testq	%rax, %rax
	je	LBB72_95
## %bb.86:                              ##   in Loop: Header=BB72_80 Depth=2
	movq	%r13, (%rax)
	movl	$799, %r9d              ## imm = 0x31F
	movq	%rax, %r13
	xorps	%xmm15, %xmm15
	movss	-608(%rbp), %xmm1       ## 4-byte Reload
                                        ## xmm1 = mem[0],zero,zero,zero
LBB72_87:                               ##   in Loop: Header=BB72_80 Depth=2
	movslq	%r9d, %rax
	shlq	$5, %rax
	leaq	8(%r13,%rax), %rax
	xorl	%esi, %esi
	testq	%rax, %rax
	je	LBB72_183
LBB72_88:                               ##   in Loop: Header=BB72_80 Depth=2
	movss	8(%r15), %xmm3          ## xmm3 = mem[0],zero,zero,zero
	movss	(%r15), %xmm2           ## xmm2 = mem[0],zero,zero,zero
	movss	4(%r15), %xmm5          ## xmm5 = mem[0],zero,zero,zero
	subss	%xmm2, %xmm3
	movss	12(%r15), %xmm0         ## xmm0 = mem[0],zero,zero,zero
	movaps	%xmm0, %xmm4
	subss	%xmm5, %xmm4
	divss	%xmm4, %xmm3
	movss	%xmm3, 12(%rax)
	xorps	%xmm4, %xmm4
	ucomiss	%xmm4, %xmm3
	jne	LBB72_89
	jnp	LBB72_90
LBB72_89:                               ##   in Loop: Header=BB72_80 Depth=2
	movss	LCPI72_1(%rip), %xmm4   ## xmm4 = mem[0],zero,zero,zero
	divss	%xmm3, %xmm4
LBB72_90:                               ##   in Loop: Header=BB72_80 Depth=2
	movss	%xmm4, 16(%rax)
	movaps	%xmm1, %xmm4
	subss	%xmm5, %xmm4
	mulss	%xmm3, %xmm4
	addss	%xmm4, %xmm2
	subss	-776(%rbp), %xmm2       ## 4-byte Folded Reload
	movss	%xmm2, 8(%rax)
	xorl	%ecx, %ecx
	cmpl	$0, 16(%r15)
	sete	%cl
	movss	(%r14,%rcx,4), %xmm2    ## xmm2 = mem[0],zero,zero,zero
	movss	%xmm2, 20(%rax)
	movss	%xmm5, 24(%rax)
	movss	%xmm0, 28(%rax)
	movq	$0, (%rax)
	ucomiss	%xmm0, %xmm1
	setbe	%cl
	movl	%ebx, %edx
	xorb	$1, %dl
	orb	%cl, %dl
	jne	LBB72_92
## %bb.91:                              ##   in Loop: Header=BB72_80 Depth=2
	movss	%xmm1, 28(%rax)
	movaps	%xmm1, %xmm0
LBB72_92:                               ##   in Loop: Header=BB72_80 Depth=2
	ucomiss	%xmm1, %xmm0
	jb	LBB72_182
## %bb.93:                              ##   in Loop: Header=BB72_80 Depth=2
	movq	-672(%rbp), %rcx
	movq	%rcx, (%rax)
	movq	%rax, -672(%rbp)
LBB72_94:                               ##   in Loop: Header=BB72_80 Depth=2
	movss	24(%r15), %xmm0         ## xmm0 = mem[0],zero,zero,zero
	addq	$20, %r15
	movss	-600(%rbp), %xmm2       ## 4-byte Reload
                                        ## xmm2 = mem[0],zero,zero,zero
	ucomiss	%xmm0, %xmm2
	jae	LBB72_80
	jmp	LBB72_96
LBB72_95:                               ##   in Loop: Header=BB72_80 Depth=2
	xorl	%r9d, %r9d
	xorl	%esi, %esi
	xorl	%eax, %eax
	xorps	%xmm15, %xmm15
	movss	-608(%rbp), %xmm1       ## 4-byte Reload
                                        ## xmm1 = mem[0],zero,zero,zero
	testq	%rax, %rax
	jne	LBB72_88
	jmp	LBB72_183
	.p2align	4, 0x90
LBB72_96:                               ##   in Loop: Header=BB72_70 Depth=1
	movq	%rsi, -680(%rbp)        ## 8-byte Spill
	movq	%r15, -760(%rbp)        ## 8-byte Spill
	movq	%r13, -688(%rbp)        ## 8-byte Spill
	movq	-672(%rbp), %r15
	testq	%r15, %r15
	je	LBB72_162
## %bb.97:                              ##   in Loop: Header=BB72_70 Depth=1
	movq	-752(%rbp), %rax        ## 8-byte Reload
	movl	(%rax), %eax
	movl	%eax, %r13d
	xorps	%xmm0, %xmm0
	cvtsi2ssl	%eax, %xmm0
	movss	%xmm0, -612(%rbp)       ## 4-byte Spill
	movq	%r9, -800(%rbp)         ## 8-byte Spill
	.p2align	4, 0x90
LBB72_98:                               ##   Parent Loop BB72_70 Depth=1
                                        ## =>  This Loop Header: Depth=2
                                        ##       Child Loop BB72_126 Depth 3
                                        ##       Child Loop BB72_154 Depth 3
	movss	28(%r15), %xmm5         ## xmm5 = mem[0],zero,zero,zero
	ucomiss	%xmm1, %xmm5
	jb	LBB72_180
## %bb.99:                              ##   in Loop: Header=BB72_98 Depth=2
	movss	8(%r15), %xmm4          ## xmm4 = mem[0],zero,zero,zero
	movss	12(%r15), %xmm7         ## xmm7 = mem[0],zero,zero,zero
	ucomiss	%xmm15, %xmm7
	jne	LBB72_103
	jp	LBB72_103
## %bb.100:                             ##   in Loop: Header=BB72_98 Depth=2
	movss	-612(%rbp), %xmm0       ## 4-byte Reload
                                        ## xmm0 = mem[0],zero,zero,zero
	ucomiss	%xmm4, %xmm0
	jbe	LBB72_161
## %bb.101:                             ##   in Loop: Header=BB72_98 Depth=2
	ucomiss	%xmm15, %xmm4
	jae	LBB72_141
## %bb.102:                             ##   in Loop: Header=BB72_98 Depth=2
	movq	-768(%rbp), %rdi        ## 8-byte Reload
	xorl	%esi, %esi
	movq	%r15, %rdx
	movaps	%xmm4, %xmm0
	movaps	%xmm4, %xmm2
	jmp	LBB72_142
	.p2align	4, 0x90
LBB72_103:                              ##   in Loop: Header=BB72_98 Depth=2
	movss	24(%r15), %xmm0         ## xmm0 = mem[0],zero,zero,zero
	movss	-600(%rbp), %xmm2       ## 4-byte Reload
                                        ## xmm2 = mem[0],zero,zero,zero
	ucomiss	%xmm0, %xmm2
	jb	LBB72_184
## %bb.104:                             ##   in Loop: Header=BB72_98 Depth=2
	movss	16(%r15), %xmm2         ## xmm2 = mem[0],zero,zero,zero
	ucomiss	%xmm1, %xmm0
	movaps	%xmm1, %xmm11
	movaps	%xmm4, %xmm3
	jbe	LBB72_106
## %bb.105:                             ##   in Loop: Header=BB72_98 Depth=2
	movaps	%xmm0, %xmm3
	subss	%xmm1, %xmm3
	mulss	%xmm7, %xmm3
	addss	%xmm4, %xmm3
	movaps	%xmm0, %xmm11
LBB72_106:                              ##   in Loop: Header=BB72_98 Depth=2
	movaps	%xmm7, %xmm9
	addss	%xmm4, %xmm9
	movss	-600(%rbp), %xmm0       ## 4-byte Reload
                                        ## xmm0 = mem[0],zero,zero,zero
	ucomiss	%xmm5, %xmm0
	movaps	%xmm9, %xmm14
	jbe	LBB72_108
## %bb.107:                             ##   in Loop: Header=BB72_98 Depth=2
	movaps	%xmm5, %xmm14
	subss	%xmm1, %xmm14
	mulss	%xmm7, %xmm14
	addss	%xmm4, %xmm14
	movaps	%xmm5, %xmm0
LBB72_108:                              ##   in Loop: Header=BB72_98 Depth=2
	ucomiss	%xmm15, %xmm3
	jb	LBB72_118
## %bb.109:                             ##   in Loop: Header=BB72_98 Depth=2
	ucomiss	%xmm15, %xmm14
	jb	LBB72_118
## %bb.110:                             ##   in Loop: Header=BB72_98 Depth=2
	movss	-612(%rbp), %xmm5       ## 4-byte Reload
                                        ## xmm5 = mem[0],zero,zero,zero
	ucomiss	%xmm3, %xmm5
	jbe	LBB72_118
## %bb.111:                             ##   in Loop: Header=BB72_98 Depth=2
	movss	-612(%rbp), %xmm5       ## 4-byte Reload
                                        ## xmm5 = mem[0],zero,zero,zero
	ucomiss	%xmm14, %xmm5
	jbe	LBB72_118
## %bb.112:                             ##   in Loop: Header=BB72_98 Depth=2
	cvttss2si	%xmm3, %eax
	cvttss2si	%xmm14, %ecx
	cmpl	%ecx, %eax
	jne	LBB72_143
## %bb.113:                             ##   in Loop: Header=BB72_98 Depth=2
	testl	%eax, %eax
	js	LBB72_185
## %bb.114:                             ##   in Loop: Header=BB72_98 Depth=2
	cmpl	%eax, %r13d
	jle	LBB72_185
## %bb.115:                             ##   in Loop: Header=BB72_98 Depth=2
	xorps	%xmm5, %xmm5
	cvtsi2ssl	%eax, %xmm5
	addss	LCPI72_1(%rip), %xmm5
	movaps	%xmm5, %xmm2
	subss	%xmm3, %xmm2
	ucomiss	%xmm15, %xmm2
	jb	LBB72_190
## %bb.116:                             ##   in Loop: Header=BB72_98 Depth=2
	subss	%xmm14, %xmm5
	ucomiss	%xmm15, %xmm5
	jb	LBB72_191
## %bb.117:                             ##   in Loop: Header=BB72_98 Depth=2
	subss	%xmm11, %xmm0
	mulss	20(%r15), %xmm0
	addss	%xmm5, %xmm2
	mulss	LCPI72_3(%rip), %xmm2
	mulss	%xmm0, %xmm2
	cltq
	addss	(%r12,%rax,4), %xmm2
	movss	%xmm2, (%r12,%rax,4)
	jmp	LBB72_160
	.p2align	4, 0x90
LBB72_118:                              ##   in Loop: Header=BB72_98 Depth=2
	testl	%r13d, %r13d
	jle	LBB72_161
## %bb.119:                             ##   in Loop: Header=BB72_98 Depth=2
	xorl	%ebx, %ebx
	movaps	%xmm7, -832(%rbp)       ## 16-byte Spill
	movss	%xmm4, -720(%rbp)       ## 4-byte Spill
	movaps	%xmm9, -656(%rbp)       ## 16-byte Spill
	jmp	LBB72_126
LBB72_120:                              ##   in Loop: Header=BB72_126 Depth=3
	ucomiss	%xmm4, %xmm2
	jbe	LBB72_122
## %bb.121:                             ##   in Loop: Header=BB72_126 Depth=3
	ucomiss	%xmm2, %xmm9
	ja	LBB72_124
LBB72_122:                              ##   in Loop: Header=BB72_126 Depth=3
	ucomiss	%xmm9, %xmm2
	jbe	LBB72_125
## %bb.123:                             ##   in Loop: Header=BB72_126 Depth=3
	ucomiss	%xmm2, %xmm4
	jbe	LBB72_125
LBB72_124:                              ##   in Loop: Header=BB72_126 Depth=3
	movq	%r12, %rdi
	movl	%r14d, %esi
	movq	%r15, %rdx
	movaps	%xmm4, %xmm0
	movss	%xmm2, -580(%rbp)       ## 4-byte Spill
	movss	%xmm3, -584(%rbp)       ## 4-byte Spill
	jmp	LBB72_129
LBB72_125:                              ##   in Loop: Header=BB72_126 Depth=3
	movq	%r12, %rdi
	movl	%r14d, %esi
	movq	%r15, %rdx
	movaps	%xmm4, %xmm0
	movaps	%xmm9, %xmm2
	jmp	LBB72_140
	.p2align	4, 0x90
LBB72_126:                              ##   Parent Loop BB72_70 Depth=1
                                        ##     Parent Loop BB72_98 Depth=2
                                        ## =>    This Inner Loop Header: Depth=3
	movl	%ebx, %r14d
	xorps	%xmm6, %xmm6
	cvtsi2ssl	%ebx, %xmm6
	leal	1(%r14), %ebx
	xorps	%xmm2, %xmm2
	cvtsi2ssl	%ebx, %xmm2
	movaps	%xmm6, %xmm5
	subss	%xmm4, %xmm5
	divss	%xmm7, %xmm5
	addss	%xmm1, %xmm5
	movaps	%xmm2, %xmm3
	subss	%xmm4, %xmm3
	divss	%xmm7, %xmm3
	addss	%xmm1, %xmm3
	ucomiss	%xmm4, %xmm6
	movss	%xmm5, -592(%rbp)       ## 4-byte Spill
	movss	%xmm6, -588(%rbp)       ## 4-byte Spill
	jbe	LBB72_130
## %bb.127:                             ##   in Loop: Header=BB72_126 Depth=3
	ucomiss	%xmm2, %xmm9
	jbe	LBB72_130
## %bb.128:                             ##   in Loop: Header=BB72_126 Depth=3
	movq	%r12, %rdi
	movl	%r14d, %esi
	movq	%r15, %rdx
	movaps	%xmm4, %xmm0
	movss	%xmm2, -580(%rbp)       ## 4-byte Spill
	movaps	%xmm6, %xmm2
	movss	%xmm3, -584(%rbp)       ## 4-byte Spill
	movaps	%xmm5, %xmm3
	callq	_stbtt__handle_clipped_edge
	movq	%r12, %rdi
	movl	%r14d, %esi
	movq	%r15, %rdx
	movss	-588(%rbp), %xmm0       ## 4-byte Reload
                                        ## xmm0 = mem[0],zero,zero,zero
	movss	-592(%rbp), %xmm1       ## 4-byte Reload
                                        ## xmm1 = mem[0],zero,zero,zero
	movss	-580(%rbp), %xmm2       ## 4-byte Reload
                                        ## xmm2 = mem[0],zero,zero,zero
	movss	-584(%rbp), %xmm3       ## 4-byte Reload
                                        ## xmm3 = mem[0],zero,zero,zero
LBB72_129:                              ##   in Loop: Header=BB72_126 Depth=3
	callq	_stbtt__handle_clipped_edge
	movq	%r12, %rdi
	movl	%r14d, %esi
	movq	%r15, %rdx
	movss	-580(%rbp), %xmm0       ## 4-byte Reload
                                        ## xmm0 = mem[0],zero,zero,zero
	movss	-584(%rbp), %xmm1       ## 4-byte Reload
                                        ## xmm1 = mem[0],zero,zero,zero
	jmp	LBB72_139
	.p2align	4, 0x90
LBB72_130:                              ##   in Loop: Header=BB72_126 Depth=3
	ucomiss	%xmm9, %xmm6
	jbe	LBB72_133
## %bb.131:                             ##   in Loop: Header=BB72_126 Depth=3
	ucomiss	%xmm2, %xmm4
	jbe	LBB72_133
## %bb.132:                             ##   in Loop: Header=BB72_126 Depth=3
	movq	%r12, %rdi
	movl	%r14d, %esi
	movq	%r15, %rdx
	movaps	%xmm4, %xmm0
	movss	%xmm2, -580(%rbp)       ## 4-byte Spill
	movss	%xmm3, -584(%rbp)       ## 4-byte Spill
	callq	_stbtt__handle_clipped_edge
	movq	%r12, %rdi
	movl	%r14d, %esi
	movq	%r15, %rdx
	movss	-580(%rbp), %xmm0       ## 4-byte Reload
                                        ## xmm0 = mem[0],zero,zero,zero
	movss	-584(%rbp), %xmm1       ## 4-byte Reload
                                        ## xmm1 = mem[0],zero,zero,zero
	movss	-588(%rbp), %xmm2       ## 4-byte Reload
                                        ## xmm2 = mem[0],zero,zero,zero
	movss	-592(%rbp), %xmm3       ## 4-byte Reload
                                        ## xmm3 = mem[0],zero,zero,zero
	jmp	LBB72_138
	.p2align	4, 0x90
LBB72_133:                              ##   in Loop: Header=BB72_126 Depth=3
	ucomiss	%xmm4, %xmm6
	jbe	LBB72_135
## %bb.134:                             ##   in Loop: Header=BB72_126 Depth=3
	ucomiss	%xmm6, %xmm9
	ja	LBB72_137
LBB72_135:                              ##   in Loop: Header=BB72_126 Depth=3
	ucomiss	%xmm9, %xmm6
	jbe	LBB72_120
## %bb.136:                             ##   in Loop: Header=BB72_126 Depth=3
	ucomiss	%xmm6, %xmm4
	jbe	LBB72_120
LBB72_137:                              ##   in Loop: Header=BB72_126 Depth=3
	movq	%r12, %rdi
	movl	%r14d, %esi
	movq	%r15, %rdx
	movaps	%xmm4, %xmm0
	movaps	%xmm6, %xmm2
	movaps	%xmm5, %xmm3
LBB72_138:                              ##   in Loop: Header=BB72_126 Depth=3
	callq	_stbtt__handle_clipped_edge
	movq	%r12, %rdi
	movl	%r14d, %esi
	movq	%r15, %rdx
	movss	-588(%rbp), %xmm0       ## 4-byte Reload
                                        ## xmm0 = mem[0],zero,zero,zero
	movss	-592(%rbp), %xmm1       ## 4-byte Reload
                                        ## xmm1 = mem[0],zero,zero,zero
LBB72_139:                              ##   in Loop: Header=BB72_126 Depth=3
	movaps	-656(%rbp), %xmm2       ## 16-byte Reload
LBB72_140:                              ##   in Loop: Header=BB72_126 Depth=3
	movss	-600(%rbp), %xmm3       ## 4-byte Reload
                                        ## xmm3 = mem[0],zero,zero,zero
	callq	_stbtt__handle_clipped_edge
	cmpl	%ebx, %r13d
	xorps	%xmm15, %xmm15
	movq	-800(%rbp), %r9         ## 8-byte Reload
	movss	-608(%rbp), %xmm1       ## 4-byte Reload
                                        ## xmm1 = mem[0],zero,zero,zero
	movaps	-832(%rbp), %xmm7       ## 16-byte Reload
	movss	-720(%rbp), %xmm4       ## 4-byte Reload
                                        ## xmm4 = mem[0],zero,zero,zero
	movaps	-656(%rbp), %xmm9       ## 16-byte Reload
	jne	LBB72_126
	jmp	LBB72_161
LBB72_141:                              ##   in Loop: Header=BB72_98 Depth=2
	cvttss2si	%xmm4, %ebx
	movq	%r12, %rdi
	movl	%ebx, %esi
	movq	%r15, %rdx
	movaps	%xmm4, %xmm0
	movaps	%xmm4, %xmm2
	movss	-600(%rbp), %xmm3       ## 4-byte Reload
                                        ## xmm3 = mem[0],zero,zero,zero
	movss	%xmm4, -720(%rbp)       ## 4-byte Spill
	callq	_stbtt__handle_clipped_edge
	incl	%ebx
	movq	-768(%rbp), %rdi        ## 8-byte Reload
	movl	%ebx, %esi
	movq	%r15, %rdx
	movss	-720(%rbp), %xmm0       ## 4-byte Reload
                                        ## xmm0 = mem[0],zero,zero,zero
	movss	-608(%rbp), %xmm1       ## 4-byte Reload
                                        ## xmm1 = mem[0],zero,zero,zero
	movaps	%xmm0, %xmm2
LBB72_142:                              ##   in Loop: Header=BB72_98 Depth=2
	movss	-600(%rbp), %xmm3       ## 4-byte Reload
                                        ## xmm3 = mem[0],zero,zero,zero
	callq	_stbtt__handle_clipped_edge
	movss	-608(%rbp), %xmm1       ## 4-byte Reload
                                        ## xmm1 = mem[0],zero,zero,zero
	xorps	%xmm15, %xmm15
	movq	-800(%rbp), %r9         ## 8-byte Reload
	jmp	LBB72_161
LBB72_143:                              ##   in Loop: Header=BB72_98 Depth=2
	ucomiss	%xmm14, %xmm3
	jbe	LBB72_145
## %bb.144:                             ##   in Loop: Header=BB72_98 Depth=2
	subss	%xmm1, %xmm11
	movss	-600(%rbp), %xmm5       ## 4-byte Reload
                                        ## xmm5 = mem[0],zero,zero,zero
	movaps	%xmm5, %xmm8
	subss	%xmm11, %xmm8
	subss	%xmm1, %xmm0
	movaps	%xmm5, %xmm11
	subss	%xmm0, %xmm11
	movaps	LCPI72_0(%rip), %xmm0   ## xmm0 = [-0.0E+0,-0.0E+0,-0.0E+0,-0.0E+0]
	xorps	%xmm0, %xmm7
	xorps	%xmm0, %xmm2
	movaps	%xmm8, %xmm0
	movaps	%xmm3, %xmm8
	ucomiss	%xmm15, %xmm2
	jae	LBB72_146
	jmp	LBB72_186
LBB72_145:                              ##   in Loop: Header=BB72_98 Depth=2
	movaps	%xmm14, %xmm8
	movaps	%xmm3, %xmm14
	movaps	%xmm4, %xmm9
	ucomiss	%xmm15, %xmm2
	jb	LBB72_186
LBB72_146:                              ##   in Loop: Header=BB72_98 Depth=2
	ucomiss	%xmm15, %xmm7
	jb	LBB72_187
## %bb.147:                             ##   in Loop: Header=BB72_98 Depth=2
	cvttss2si	%xmm14, %ecx
	leal	1(%rcx), %edx
	xorps	%xmm7, %xmm7
	cvtsi2ssl	%edx, %xmm7
	cvttss2si	%xmm8, %eax
	movaps	%xmm7, %xmm5
	subss	%xmm9, %xmm5
	mulss	%xmm2, %xmm5
	addss	%xmm1, %xmm5
	cvtsi2ssl	%eax, %xmm10
	movaps	%xmm10, %xmm12
	subss	%xmm9, %xmm12
	mulss	%xmm2, %xmm12
	movss	-600(%rbp), %xmm13      ## 4-byte Reload
                                        ## xmm13 = mem[0],zero,zero,zero
	movaps	%xmm13, %xmm4
	minss	%xmm5, %xmm4
	movss	20(%r15), %xmm9         ## xmm9 = mem[0],zero,zero,zero
	movaps	%xmm4, %xmm5
	subss	%xmm11, %xmm5
	mulss	%xmm9, %xmm5
	subss	%xmm14, %xmm7
	mulss	%xmm5, %xmm7
	mulss	LCPI72_3(%rip), %xmm7
	movslq	%ecx, %rsi
	addss	(%r12,%rsi,4), %xmm7
	addss	%xmm1, %xmm12
	movss	%xmm7, (%r12,%rsi,4)
	ucomiss	%xmm13, %xmm12
	jbe	LBB72_149
## %bb.148:                             ##   in Loop: Header=BB72_98 Depth=2
	movss	-600(%rbp), %xmm12      ## 4-byte Reload
                                        ## xmm12 = mem[0],zero,zero,zero
	movaps	%xmm12, %xmm2
	subss	%xmm4, %xmm2
	movl	%eax, %esi
	subl	%edx, %esi
	cvtsi2ssl	%esi, %xmm3
	divss	%xmm3, %xmm2
LBB72_149:                              ##   in Loop: Header=BB72_98 Depth=2
	cmpl	%eax, %edx
	jge	LBB72_155
## %bb.150:                             ##   in Loop: Header=BB72_98 Depth=2
	mulss	%xmm9, %xmm2
	movaps	%xmm2, %xmm3
	mulss	LCPI72_3(%rip), %xmm3
	movslq	%edx, %rdx
	movl	%ecx, %ebx
	notl	%ebx
	addl	%eax, %ebx
	leal	-2(%rax), %esi
	testb	$1, %bl
	je	LBB72_152
## %bb.151:                             ##   in Loop: Header=BB72_98 Depth=2
	movaps	%xmm3, %xmm4
	addss	%xmm5, %xmm4
	addss	(%r12,%rdx,4), %xmm4
	movss	%xmm4, (%r12,%rdx,4)
	addss	%xmm2, %xmm5
	incq	%rdx
LBB72_152:                              ##   in Loop: Header=BB72_98 Depth=2
	cmpl	%ecx, %esi
	je	LBB72_155
## %bb.153:                             ##   in Loop: Header=BB72_98 Depth=2
	movl	%eax, %ecx
	subl	%edx, %ecx
	movq	-840(%rbp), %rsi        ## 8-byte Reload
	leaq	(%rsi,%rdx,4), %rdx
	xorl	%esi, %esi
	.p2align	4, 0x90
LBB72_154:                              ##   Parent Loop BB72_70 Depth=1
                                        ##     Parent Loop BB72_98 Depth=2
                                        ## =>    This Inner Loop Header: Depth=3
	movaps	%xmm3, %xmm4
	addss	%xmm5, %xmm4
	addss	-4(%rdx,%rsi,4), %xmm4
	movss	%xmm4, -4(%rdx,%rsi,4)
	addss	%xmm2, %xmm5
	movaps	%xmm3, %xmm4
	addss	%xmm5, %xmm4
	addss	(%rdx,%rsi,4), %xmm4
	movss	%xmm4, (%rdx,%rsi,4)
	addss	%xmm2, %xmm5
	addq	$2, %rsi
	cmpl	%esi, %ecx
	jne	LBB72_154
LBB72_155:                              ##   in Loop: Header=BB72_98 Depth=2
	movaps	%xmm5, %xmm2
	andps	LCPI72_4(%rip), %xmm2
	movss	LCPI72_5(%rip), %xmm3   ## xmm3 = mem[0],zero,zero,zero
	ucomiss	%xmm2, %xmm3
	jb	LBB72_188
## %bb.156:                             ##   in Loop: Header=BB72_98 Depth=2
	movaps	%xmm12, %xmm2
	addss	LCPI72_6(%rip), %xmm2
	ucomiss	%xmm2, %xmm0
	jbe	LBB72_189
## %bb.157:                             ##   in Loop: Header=BB72_98 Depth=2
	movaps	%xmm10, %xmm3
	addss	LCPI72_1(%rip), %xmm3
	movaps	%xmm3, %xmm2
	subss	%xmm10, %xmm2
	ucomiss	%xmm15, %xmm2
	jb	LBB72_190
## %bb.158:                             ##   in Loop: Header=BB72_98 Depth=2
	subss	%xmm8, %xmm3
	ucomiss	%xmm15, %xmm3
	jb	LBB72_191
## %bb.159:                             ##   in Loop: Header=BB72_98 Depth=2
	movaps	%xmm0, %xmm4
	subss	%xmm12, %xmm4
	addss	%xmm3, %xmm2
	mulss	LCPI72_3(%rip), %xmm2
	mulss	%xmm4, %xmm2
	mulss	%xmm9, %xmm2
	addss	%xmm5, %xmm2
	cltq
	addss	(%r12,%rax,4), %xmm2
	movss	%xmm2, (%r12,%rax,4)
	subss	%xmm11, %xmm0
	mulss	%xmm9, %xmm0
LBB72_160:                              ##   in Loop: Header=BB72_98 Depth=2
	movq	-808(%rbp), %rcx        ## 8-byte Reload
	addss	(%rcx,%rax,4), %xmm0
	movss	%xmm0, (%rcx,%rax,4)
	.p2align	4, 0x90
LBB72_161:                              ##   in Loop: Header=BB72_98 Depth=2
	movq	(%r15), %r15
	testq	%r15, %r15
	jne	LBB72_98
LBB72_162:                              ##   in Loop: Header=BB72_70 Depth=1
	movq	-752(%rbp), %r12        ## 8-byte Reload
	movl	(%r12), %r14d
	testl	%r14d, %r14d
	movq	-768(%rbp), %r15        ## 8-byte Reload
	movq	-688(%rbp), %rdi        ## 8-byte Reload
	movq	-680(%rbp), %r8         ## 8-byte Reload
	jle	LBB72_167
## %bb.163:                             ##   in Loop: Header=BB72_70 Depth=1
	xorps	%xmm0, %xmm0
	xorl	%eax, %eax
	.p2align	4, 0x90
LBB72_164:                              ##   Parent Loop BB72_70 Depth=1
                                        ## =>  This Inner Loop Header: Depth=2
	addss	(%r15,%rax,4), %xmm0
	movq	-624(%rbp), %rcx        ## 8-byte Reload
	movss	(%rcx,%rax,4), %xmm1    ## xmm1 = mem[0],zero,zero,zero
	addss	%xmm0, %xmm1
	andps	LCPI72_4(%rip), %xmm1
	mulss	LCPI72_7(%rip), %xmm1
	addss	LCPI72_3(%rip), %xmm1
	cvttss2si	%xmm1, %ecx
	cmpl	$255, %ecx
	jl	LBB72_166
## %bb.165:                             ##   in Loop: Header=BB72_164 Depth=2
	movb	$-1, %cl
LBB72_166:                              ##   in Loop: Header=BB72_164 Depth=2
	movq	16(%r12), %rdx
	movl	8(%r12), %esi
	imull	-736(%rbp), %esi        ## 4-byte Folded Reload
	addl	%eax, %esi
	movslq	%esi, %rsi
	movb	%cl, (%rdx,%rsi)
	incq	%rax
	movslq	(%r12), %r14
	cmpq	%r14, %rax
	jl	LBB72_164
LBB72_167:                              ##   in Loop: Header=BB72_70 Depth=1
	movq	-672(%rbp), %rbx
	movq	%rbx, %rax
	testq	%rbx, %rbx
	je	LBB72_169
	.p2align	4, 0x90
LBB72_168:                              ##   Parent Loop BB72_70 Depth=1
                                        ## =>  This Inner Loop Header: Depth=2
	movss	12(%rax), %xmm0         ## xmm0 = mem[0],zero,zero,zero
	addss	8(%rax), %xmm0
	movss	%xmm0, 8(%rax)
	movq	(%rax), %rax
	testq	%rax, %rax
	jne	LBB72_168
LBB72_169:                              ##   in Loop: Header=BB72_70 Depth=1
	movl	-772(%rbp), %eax        ## 4-byte Reload
	incl	%eax
	movl	-736(%rbp), %ecx        ## 4-byte Reload
	incl	%ecx
	movl	%ecx, -736(%rbp)        ## 4-byte Spill
	cmpl	4(%r12), %ecx
	jl	LBB72_70
## %bb.170:
	testq	%rdi, %rdi
	je	LBB72_172
	.p2align	4, 0x90
LBB72_171:                              ## =>This Inner Loop Header: Depth=1
	movq	(%rdi), %rbx
	callq	_free
	movq	%rbx, %rdi
	testq	%rbx, %rbx
	jne	LBB72_171
LBB72_172:
	leaq	-576(%rbp), %rax
	movq	-624(%rbp), %rdi        ## 8-byte Reload
	cmpq	%rax, %rdi
	je	LBB72_174
## %bb.173:
	callq	_free
LBB72_174:
	movq	-632(%rbp), %rdi        ## 8-byte Reload
	callq	_free
	movq	-696(%rbp), %r15        ## 8-byte Reload
LBB72_175:
	movq	%r15, %rdi
	callq	_free
	movq	-664(%rbp), %rdi        ## 8-byte Reload
LBB72_176:
	callq	_free
LBB72_177:
	movq	___stack_chk_guard@GOTPCREL(%rip), %rax
	movq	(%rax), %rax
	cmpq	-48(%rbp), %rax
	jne	LBB72_179
## %bb.178:
	addq	$808, %rsp              ## imm = 0x328
	popq	%rbx
	popq	%r12
	popq	%r13
	popq	%r14
	popq	%r15
	popq	%rbp
	retq
LBB72_179:
	callq	___stack_chk_fail
LBB72_180:
	leaq	L___func__.stbtt__fill_active_edges_new(%rip), %rdi
	leaq	L_.str.2(%rip), %rsi
	leaq	L_.str.102(%rip), %rcx
	movl	$3090, %edx             ## imm = 0xC12
	callq	___assert_rtn
LBB72_181:
	leaq	L___func__.stbtt__rasterize_sorted_edges(%rip), %rdi
	leaq	L_.str.2(%rip), %rsi
	leaq	L_.str.99(%rip), %rcx
	movl	$3331, %edx             ## imm = 0xD03
	callq	___assert_rtn
LBB72_182:
	leaq	L___func__.stbtt__rasterize_sorted_edges(%rip), %rdi
	leaq	L_.str.2(%rip), %rsi
	leaq	L_.str.100(%rip), %rcx
	movl	$3350, %edx             ## imm = 0xD16
	callq	___assert_rtn
LBB72_183:
	leaq	L___func__.stbtt__new_active(%rip), %rdi
	leaq	L_.str.2(%rip), %rsi
	leaq	L_.str.101(%rip), %rcx
	movl	$2861, %edx             ## imm = 0xB2D
	callq	___assert_rtn
LBB72_184:
	leaq	L___func__.stbtt__fill_active_edges_new(%rip), %rdi
	leaq	L_.str.2(%rip), %rsi
	leaq	L_.str.103(%rip), %rcx
	movl	$3109, %edx             ## imm = 0xC25
	callq	___assert_rtn
LBB72_185:
	leaq	L___func__.stbtt__fill_active_edges_new(%rip), %rdi
	leaq	L_.str.2(%rip), %rsi
	leaq	L_.str.104(%rip), %rcx
	movl	$3137, %edx             ## imm = 0xC41
	callq	___assert_rtn
LBB72_186:
	leaq	L___func__.stbtt__fill_active_edges_new(%rip), %rdi
	leaq	L_.str.2(%rip), %rsi
	leaq	L_.str.105(%rip), %rcx
	movl	$3155, %edx             ## imm = 0xC53
	callq	___assert_rtn
LBB72_187:
	leaq	L___func__.stbtt__fill_active_edges_new(%rip), %rdi
	leaq	L_.str.2(%rip), %rsi
	leaq	L_.str.106(%rip), %rcx
	movl	$3156, %edx             ## imm = 0xC54
	callq	___assert_rtn
LBB72_188:
	leaq	L___func__.stbtt__fill_active_edges_new(%rip), %rdi
	leaq	L_.str.2(%rip), %rsi
	leaq	L_.str.107(%rip), %rcx
	movl	$3220, %edx             ## imm = 0xC94
	callq	___assert_rtn
LBB72_189:
	leaq	L___func__.stbtt__fill_active_edges_new(%rip), %rdi
	leaq	L_.str.2(%rip), %rsi
	leaq	L_.str.108(%rip), %rcx
	movl	$3221, %edx             ## imm = 0xC95
	callq	___assert_rtn
LBB72_190:
	leaq	L___func__.stbtt__sized_trapezoid_area(%rip), %rdi
	leaq	L_.str.2(%rip), %rsi
	leaq	L_.str.117(%rip), %rcx
	movl	$3067, %edx             ## imm = 0xBFB
	callq	___assert_rtn
LBB72_191:
	leaq	L___func__.stbtt__sized_trapezoid_area(%rip), %rdi
	leaq	L_.str.2(%rip), %rsi
	leaq	L_.str.118(%rip), %rcx
	movl	$3068, %edx             ## imm = 0xBFC
	callq	___assert_rtn
	.cfi_endproc
	.p2align	2, 0x90
	.data_region jt32
.set L72_0_set_17, LBB72_17-LJTI72_0
.set L72_0_set_24, LBB72_24-LJTI72_0
.set L72_0_set_21, LBB72_21-LJTI72_0
.set L72_0_set_22, LBB72_22-LJTI72_0
LJTI72_0:
	.long	L72_0_set_17
	.long	L72_0_set_24
	.long	L72_0_set_21
	.long	L72_0_set_22
	.end_data_region
                                        ## -- End function
	.globl	_stbtt_FreeBitmap       ## -- Begin function stbtt_FreeBitmap
	.p2align	4, 0x90
_stbtt_FreeBitmap:                      ## @stbtt_FreeBitmap
	.cfi_startproc
## %bb.0:
	pushq	%rbp
	.cfi_def_cfa_offset 16
	.cfi_offset %rbp, -16
	movq	%rsp, %rbp
	.cfi_def_cfa_register %rbp
	popq	%rbp
	jmp	_free                   ## TAILCALL
	.cfi_endproc
                                        ## -- End function
	.section	__TEXT,__literal4,4byte_literals
	.p2align	2               ## -- Begin function stbtt_GetGlyphBitmapSubpixel
LCPI74_0:
	.long	1051931443              ## float 0.349999994
	.section	__TEXT,__text,regular,pure_instructions
	.globl	_stbtt_GetGlyphBitmapSubpixel
	.p2align	4, 0x90
_stbtt_GetGlyphBitmapSubpixel:          ## @stbtt_GetGlyphBitmapSubpixel
	.cfi_startproc
## %bb.0:
	pushq	%rbp
	.cfi_def_cfa_offset 16
	.cfi_offset %rbp, -16
	movq	%rsp, %rbp
	.cfi_def_cfa_register %rbp
	pushq	%r15
	pushq	%r14
	pushq	%r13
	pushq	%r12
	pushq	%rbx
	subq	$136, %rsp
	.cfi_offset %rbx, -56
	.cfi_offset %r12, -48
	.cfi_offset %r13, -40
	.cfi_offset %r14, -32
	.cfi_offset %r15, -24
	movq	%r9, -96(%rbp)          ## 8-byte Spill
	movq	%r8, -88(%rbp)          ## 8-byte Spill
	movq	%rcx, %r13
	movq	%rdx, %r12
	movl	%esi, %r14d
	movss	%xmm3, -48(%rbp)        ## 4-byte Spill
	movss	%xmm2, -44(%rbp)        ## 4-byte Spill
	movaps	%xmm1, -160(%rbp)       ## 16-byte Spill
	movaps	%xmm0, -144(%rbp)       ## 16-byte Spill
	movq	%rdi, %rbx
	leaq	-64(%rbp), %rdx
	callq	_stbtt_GetGlyphShape
	movaps	-160(%rbp), %xmm2       ## 16-byte Reload
	xorps	%xmm0, %xmm0
	movaps	-144(%rbp), %xmm4       ## 16-byte Reload
	movaps	%xmm4, %xmm3
	cmpeqss	%xmm0, %xmm3
	movaps	%xmm3, %xmm1
	andps	%xmm2, %xmm1
	andnps	%xmm4, %xmm3
	orps	%xmm1, %xmm3
	ucomiss	%xmm0, %xmm2
	jne	LBB74_3
	jp	LBB74_3
## %bb.1:
	ucomiss	%xmm0, %xmm3
	movaps	%xmm3, %xmm2
	jne	LBB74_3
	jp	LBB74_3
## %bb.2:
	movq	-64(%rbp), %rdi
	callq	_free
	xorl	%ebx, %ebx
	jmp	LBB74_20
LBB74_3:
	movaps	%xmm3, -144(%rbp)       ## 16-byte Spill
	movl	%eax, -68(%rbp)         ## 4-byte Spill
	movaps	%xmm2, -160(%rbp)       ## 16-byte Spill
	movl	$0, -120(%rbp)
	movl	$0, -52(%rbp)
	leaq	-120(%rbp), %rdx
	leaq	-52(%rbp), %rcx
	leaq	-76(%rbp), %r8
	leaq	-72(%rbp), %r9
	movq	%rbx, %rdi
	movl	%r14d, %esi
	callq	_stbtt_GetGlyphBox
	testl	%eax, %eax
	je	LBB74_4
## %bb.5:
	xorps	%xmm0, %xmm0
	cvtsi2ssl	-120(%rbp), %xmm0
	movaps	-144(%rbp), %xmm4       ## 16-byte Reload
	mulss	%xmm4, %xmm0
	movss	-44(%rbp), %xmm2        ## 4-byte Reload
                                        ## xmm2 = mem[0],zero,zero,zero
	addss	%xmm2, %xmm0
	roundss	$9, %xmm0, %xmm0
	cvttss2si	%xmm0, %esi
	xorl	%eax, %eax
	subl	-72(%rbp), %eax
	xorps	%xmm0, %xmm0
	cvtsi2ssl	%eax, %xmm0
	movaps	-160(%rbp), %xmm3       ## 16-byte Reload
	mulss	%xmm3, %xmm0
	movss	-48(%rbp), %xmm1        ## 4-byte Reload
                                        ## xmm1 = mem[0],zero,zero,zero
	addss	%xmm1, %xmm0
	roundss	$9, %xmm0, %xmm0
	cvttss2si	%xmm0, %r15d
	xorps	%xmm0, %xmm0
	cvtsi2ssl	-76(%rbp), %xmm0
	xorl	%eax, %eax
	mulss	%xmm4, %xmm0
	addss	%xmm2, %xmm0
	roundss	$10, %xmm0, %xmm0
	cvttss2si	%xmm0, %r14d
	subl	-52(%rbp), %eax
	xorps	%xmm0, %xmm0
	cvtsi2ssl	%eax, %xmm0
	mulss	%xmm3, %xmm0
	addss	%xmm1, %xmm0
	roundss	$10, %xmm0, %xmm0
	cvttss2si	%xmm0, %eax
	jmp	LBB74_6
LBB74_4:
	xorl	%esi, %esi
	xorl	%r15d, %r15d
	xorl	%r14d, %r14d
	xorl	%eax, %eax
LBB74_6:
	movq	-96(%rbp), %rcx         ## 8-byte Reload
	movq	-88(%rbp), %rdx         ## 8-byte Reload
	subl	%esi, %r14d
	movl	%r14d, -120(%rbp)
	subl	%r15d, %eax
	movl	%eax, -116(%rbp)
	movq	$0, -104(%rbp)
	testq	%r12, %r12
	je	LBB74_8
## %bb.7:
	movl	%r14d, (%r12)
LBB74_8:
	testq	%r13, %r13
	je	LBB74_10
## %bb.9:
	movl	%eax, (%r13)
LBB74_10:
	testq	%rdx, %rdx
	je	LBB74_12
## %bb.11:
	movl	%esi, (%rdx)
LBB74_12:
	testq	%rcx, %rcx
	je	LBB74_14
## %bb.13:
	movl	%r15d, (%rcx)
LBB74_14:
	xorl	%ebx, %ebx
	testl	%r14d, %r14d
	je	LBB74_19
## %bb.15:
	testl	%eax, %eax
	je	LBB74_19
## %bb.16:
	movl	%esi, %r12d
	imull	%r14d, %eax
	movslq	%eax, %rdi
	callq	_malloc
	movq	%rax, -104(%rbp)
	testq	%rax, %rax
	je	LBB74_17
## %bb.18:
	movq	%rax, %rbx
	movl	%r14d, -112(%rbp)
	movq	-64(%rbp), %rsi
	leaq	-120(%rbp), %rdi
	movss	LCPI74_0(%rip), %xmm0   ## xmm0 = mem[0],zero,zero,zero
	movl	-68(%rbp), %edx         ## 4-byte Reload
	movaps	-144(%rbp), %xmm1       ## 16-byte Reload
	movaps	-160(%rbp), %xmm2       ## 16-byte Reload
	movss	-44(%rbp), %xmm3        ## 4-byte Reload
                                        ## xmm3 = mem[0],zero,zero,zero
	movss	-48(%rbp), %xmm4        ## 4-byte Reload
                                        ## xmm4 = mem[0],zero,zero,zero
	movl	%r12d, %ecx
	movl	%r15d, %r8d
	movl	$1, %r9d
	callq	_stbtt_Rasterize
	jmp	LBB74_19
LBB74_17:
	xorl	%ebx, %ebx
LBB74_19:
	movq	-64(%rbp), %rdi
	callq	_free
LBB74_20:
	movq	%rbx, %rax
	addq	$136, %rsp
	popq	%rbx
	popq	%r12
	popq	%r13
	popq	%r14
	popq	%r15
	popq	%rbp
	retq
	.cfi_endproc
                                        ## -- End function
	.globl	_stbtt_GetGlyphBitmap   ## -- Begin function stbtt_GetGlyphBitmap
	.p2align	4, 0x90
_stbtt_GetGlyphBitmap:                  ## @stbtt_GetGlyphBitmap
	.cfi_startproc
## %bb.0:
	pushq	%rbp
	.cfi_def_cfa_offset 16
	.cfi_offset %rbp, -16
	movq	%rsp, %rbp
	.cfi_def_cfa_register %rbp
	xorps	%xmm2, %xmm2
	xorps	%xmm3, %xmm3
	popq	%rbp
	jmp	_stbtt_GetGlyphBitmapSubpixel ## TAILCALL
	.cfi_endproc
                                        ## -- End function
	.section	__TEXT,__literal4,4byte_literals
	.p2align	2               ## -- Begin function stbtt_MakeGlyphBitmapSubpixel
LCPI76_0:
	.long	1051931443              ## float 0.349999994
	.section	__TEXT,__text,regular,pure_instructions
	.globl	_stbtt_MakeGlyphBitmapSubpixel
	.p2align	4, 0x90
_stbtt_MakeGlyphBitmapSubpixel:         ## @stbtt_MakeGlyphBitmapSubpixel
	.cfi_startproc
## %bb.0:
	pushq	%rbp
	.cfi_def_cfa_offset 16
	.cfi_offset %rbp, -16
	movq	%rsp, %rbp
	.cfi_def_cfa_register %rbp
	pushq	%r15
	pushq	%r14
	pushq	%r13
	pushq	%r12
	pushq	%rbx
	subq	$88, %rsp
	.cfi_offset %rbx, -56
	.cfi_offset %r12, -48
	.cfi_offset %r13, -40
	.cfi_offset %r14, -32
	.cfi_offset %r15, -24
	movl	%r9d, %r14d
	movss	%xmm3, -56(%rbp)        ## 4-byte Spill
	movss	%xmm2, -52(%rbp)        ## 4-byte Spill
	movss	%xmm1, -48(%rbp)        ## 4-byte Spill
	movss	%xmm0, -44(%rbp)        ## 4-byte Spill
	movl	%r8d, -64(%rbp)         ## 4-byte Spill
	movl	%ecx, %r12d
	movl	%edx, %ebx
	movq	%rsi, %r13
	movq	%rdi, %r15
	leaq	-80(%rbp), %rdx
	movl	%r9d, %esi
	callq	_stbtt_GetGlyphShape
	movl	%eax, -60(%rbp)         ## 4-byte Spill
	movl	$0, -104(%rbp)
	movl	$0, -72(%rbp)
	leaq	-104(%rbp), %rdx
	leaq	-72(%rbp), %rcx
	leaq	-108(%rbp), %r8
	leaq	-68(%rbp), %r9
	movq	%r15, %rdi
	movl	%r14d, %esi
	callq	_stbtt_GetGlyphBox
	testl	%eax, %eax
	je	LBB76_1
## %bb.2:
	xorps	%xmm0, %xmm0
	cvtsi2ssl	-104(%rbp), %xmm0
	movss	-44(%rbp), %xmm1        ## 4-byte Reload
                                        ## xmm1 = mem[0],zero,zero,zero
	mulss	%xmm1, %xmm0
	movss	-52(%rbp), %xmm3        ## 4-byte Reload
                                        ## xmm3 = mem[0],zero,zero,zero
	addss	%xmm3, %xmm0
	roundss	$9, %xmm0, %xmm0
	cvttss2si	%xmm0, %ecx
	xorl	%eax, %eax
	subl	-68(%rbp), %eax
	xorps	%xmm0, %xmm0
	cvtsi2ssl	%eax, %xmm0
	movss	-48(%rbp), %xmm2        ## 4-byte Reload
                                        ## xmm2 = mem[0],zero,zero,zero
	mulss	%xmm2, %xmm0
	movss	-56(%rbp), %xmm4        ## 4-byte Reload
                                        ## xmm4 = mem[0],zero,zero,zero
	addss	%xmm4, %xmm0
	roundss	$9, %xmm0, %xmm0
	cvttss2si	%xmm0, %r8d
	jmp	LBB76_3
LBB76_1:
	xorl	%ecx, %ecx
	xorl	%r8d, %r8d
	movss	-56(%rbp), %xmm4        ## 4-byte Reload
                                        ## xmm4 = mem[0],zero,zero,zero
	movss	-52(%rbp), %xmm3        ## 4-byte Reload
                                        ## xmm3 = mem[0],zero,zero,zero
	movss	-48(%rbp), %xmm2        ## 4-byte Reload
                                        ## xmm2 = mem[0],zero,zero,zero
	movss	-44(%rbp), %xmm1        ## 4-byte Reload
                                        ## xmm1 = mem[0],zero,zero,zero
LBB76_3:
	movq	%r13, -88(%rbp)
	movl	%ebx, -104(%rbp)
	movl	%r12d, -100(%rbp)
	movl	-64(%rbp), %eax         ## 4-byte Reload
	movl	%eax, -96(%rbp)
	testl	%ebx, %ebx
	je	LBB76_5
## %bb.4:
	testl	%r12d, %r12d
	je	LBB76_5
## %bb.6:
	movq	-80(%rbp), %rbx
	leaq	-104(%rbp), %rdi
	movss	LCPI76_0(%rip), %xmm0   ## xmm0 = mem[0],zero,zero,zero
	movq	%rbx, %rsi
	movl	-60(%rbp), %edx         ## 4-byte Reload
	movl	$1, %r9d
	callq	_stbtt_Rasterize
	jmp	LBB76_7
LBB76_5:
	movq	-80(%rbp), %rbx
LBB76_7:
	movq	%rbx, %rdi
	callq	_free
	addq	$88, %rsp
	popq	%rbx
	popq	%r12
	popq	%r13
	popq	%r14
	popq	%r15
	popq	%rbp
	retq
	.cfi_endproc
                                        ## -- End function
	.globl	_stbtt_MakeGlyphBitmap  ## -- Begin function stbtt_MakeGlyphBitmap
	.p2align	4, 0x90
_stbtt_MakeGlyphBitmap:                 ## @stbtt_MakeGlyphBitmap
	.cfi_startproc
## %bb.0:
	pushq	%rbp
	.cfi_def_cfa_offset 16
	.cfi_offset %rbp, -16
	movq	%rsp, %rbp
	.cfi_def_cfa_register %rbp
	xorps	%xmm2, %xmm2
	xorps	%xmm3, %xmm3
	popq	%rbp
	jmp	_stbtt_MakeGlyphBitmapSubpixel ## TAILCALL
	.cfi_endproc
                                        ## -- End function
	.globl	_stbtt_GetCodepointBitmapSubpixel ## -- Begin function stbtt_GetCodepointBitmapSubpixel
	.p2align	4, 0x90
_stbtt_GetCodepointBitmapSubpixel:      ## @stbtt_GetCodepointBitmapSubpixel
	.cfi_startproc
## %bb.0:
	pushq	%rbp
	.cfi_def_cfa_offset 16
	.cfi_offset %rbp, -16
	movq	%rsp, %rbp
	.cfi_def_cfa_register %rbp
	pushq	%r15
	pushq	%r14
	pushq	%r13
	pushq	%r12
	pushq	%rbx
	subq	$24, %rsp
	.cfi_offset %rbx, -56
	.cfi_offset %r12, -48
	.cfi_offset %r13, -40
	.cfi_offset %r14, -32
	.cfi_offset %r15, -24
	movq	%r9, %r14
	movq	%r8, %r15
	movq	%rcx, %r12
	movq	%rdx, %r13
	movss	%xmm3, -56(%rbp)        ## 4-byte Spill
	movss	%xmm2, -52(%rbp)        ## 4-byte Spill
	movss	%xmm1, -48(%rbp)        ## 4-byte Spill
	movss	%xmm0, -44(%rbp)        ## 4-byte Spill
	movq	%rdi, %rbx
	callq	_stbtt_FindGlyphIndex
	movq	%rbx, %rdi
	movss	-44(%rbp), %xmm0        ## 4-byte Reload
                                        ## xmm0 = mem[0],zero,zero,zero
	movss	-48(%rbp), %xmm1        ## 4-byte Reload
                                        ## xmm1 = mem[0],zero,zero,zero
	movss	-52(%rbp), %xmm2        ## 4-byte Reload
                                        ## xmm2 = mem[0],zero,zero,zero
	movss	-56(%rbp), %xmm3        ## 4-byte Reload
                                        ## xmm3 = mem[0],zero,zero,zero
	movl	%eax, %esi
	movq	%r13, %rdx
	movq	%r12, %rcx
	movq	%r15, %r8
	movq	%r14, %r9
	addq	$24, %rsp
	popq	%rbx
	popq	%r12
	popq	%r13
	popq	%r14
	popq	%r15
	popq	%rbp
	jmp	_stbtt_GetGlyphBitmapSubpixel ## TAILCALL
	.cfi_endproc
                                        ## -- End function
	.globl	_stbtt_MakeCodepointBitmapSubpixelPrefilter ## -- Begin function stbtt_MakeCodepointBitmapSubpixelPrefilter
	.p2align	4, 0x90
_stbtt_MakeCodepointBitmapSubpixelPrefilter: ## @stbtt_MakeCodepointBitmapSubpixelPrefilter
	.cfi_startproc
## %bb.0:
	pushq	%rbp
	.cfi_def_cfa_offset 16
	.cfi_offset %rbp, -16
	movq	%rsp, %rbp
	.cfi_def_cfa_register %rbp
	pushq	%r15
	pushq	%r14
	pushq	%r13
	pushq	%r12
	pushq	%rbx
	subq	$56, %rsp
	.cfi_offset %rbx, -56
	.cfi_offset %r12, -48
	.cfi_offset %r13, -40
	.cfi_offset %r14, -32
	.cfi_offset %r15, -24
	movl	%r9d, %ebx
	movss	%xmm3, -60(%rbp)        ## 4-byte Spill
	movss	%xmm2, -56(%rbp)        ## 4-byte Spill
	movss	%xmm1, -52(%rbp)        ## 4-byte Spill
	movss	%xmm0, -48(%rbp)        ## 4-byte Spill
	movl	%r8d, %r12d
	movl	%ecx, %r13d
	movl	%edx, %r14d
	movq	%rsi, -88(%rbp)         ## 8-byte Spill
	movq	%rdi, %r15
	movl	40(%rbp), %esi
	callq	_stbtt_FindGlyphIndex
	movq	%r14, -72(%rbp)         ## 8-byte Spill
	leal	1(%r14), %edx
	movq	-88(%rbp), %r14         ## 8-byte Reload
	subl	%ebx, %edx
	movq	%r13, -80(%rbp)         ## 8-byte Spill
	leal	1(%r13), %ecx
	subl	16(%rbp), %ecx
	movq	%r15, %rdi
	movq	%r14, %rsi
	movl	%r12d, -44(%rbp)        ## 4-byte Spill
	movl	%r12d, %r8d
	movss	-48(%rbp), %xmm0        ## 4-byte Reload
                                        ## xmm0 = mem[0],zero,zero,zero
	movss	-52(%rbp), %xmm1        ## 4-byte Reload
                                        ## xmm1 = mem[0],zero,zero,zero
	movss	-56(%rbp), %xmm2        ## 4-byte Reload
                                        ## xmm2 = mem[0],zero,zero,zero
	movss	-60(%rbp), %xmm3        ## 4-byte Reload
                                        ## xmm3 = mem[0],zero,zero,zero
	movl	%eax, %r9d
	callq	_stbtt_MakeGlyphBitmapSubpixel
	cmpl	$2, %ebx
	jl	LBB79_2
## %bb.1:
	movq	%r14, %rdi
	movq	-72(%rbp), %rsi         ## 8-byte Reload
                                        ## kill: def $esi killed $esi killed $rsi
	movq	-80(%rbp), %rdx         ## 8-byte Reload
                                        ## kill: def $edx killed $edx killed $rdx
	movl	-44(%rbp), %ecx         ## 4-byte Reload
	movl	%ebx, %r8d
	callq	_stbtt__h_prefilter
LBB79_2:
	movl	16(%rbp), %r15d
	cmpl	$2, %r15d
	jl	LBB79_4
## %bb.3:
	movq	%r14, %rdi
	movq	-72(%rbp), %rsi         ## 8-byte Reload
                                        ## kill: def $esi killed $esi killed $rsi
	movq	-80(%rbp), %rdx         ## 8-byte Reload
                                        ## kill: def $edx killed $edx killed $rdx
	movl	-44(%rbp), %ecx         ## 4-byte Reload
	movl	%r15d, %r8d
	callq	_stbtt__v_prefilter
LBB79_4:
	movq	24(%rbp), %rax
	xorps	%xmm0, %xmm0
	xorps	%xmm1, %xmm1
	testl	%ebx, %ebx
	je	LBB79_6
## %bb.5:
	movl	$1, %ecx
	subl	%ebx, %ecx
	xorps	%xmm1, %xmm1
	cvtsi2ssl	%ecx, %xmm1
	xorps	%xmm2, %xmm2
	cvtsi2ssl	%ebx, %xmm2
	addss	%xmm2, %xmm2
	divss	%xmm2, %xmm1
LBB79_6:
	movq	32(%rbp), %rcx
	movss	%xmm1, (%rax)
	testl	%r15d, %r15d
	je	LBB79_8
## %bb.7:
	movl	$1, %eax
	subl	%r15d, %eax
	xorps	%xmm0, %xmm0
	cvtsi2ssl	%eax, %xmm0
	xorps	%xmm1, %xmm1
	cvtsi2ssl	%r15d, %xmm1
	addss	%xmm1, %xmm1
	divss	%xmm1, %xmm0
LBB79_8:
	movss	%xmm0, (%rcx)
	addq	$56, %rsp
	popq	%rbx
	popq	%r12
	popq	%r13
	popq	%r14
	popq	%r15
	popq	%rbp
	retq
	.cfi_endproc
                                        ## -- End function
	.globl	_stbtt_MakeGlyphBitmapSubpixelPrefilter ## -- Begin function stbtt_MakeGlyphBitmapSubpixelPrefilter
	.p2align	4, 0x90
_stbtt_MakeGlyphBitmapSubpixelPrefilter: ## @stbtt_MakeGlyphBitmapSubpixelPrefilter
	.cfi_startproc
## %bb.0:
	pushq	%rbp
	.cfi_def_cfa_offset 16
	.cfi_offset %rbp, -16
	movq	%rsp, %rbp
	.cfi_def_cfa_register %rbp
	pushq	%r15
	pushq	%r14
	pushq	%r13
	pushq	%r12
	pushq	%rbx
	pushq	%rax
	.cfi_offset %rbx, -56
	.cfi_offset %r12, -48
	.cfi_offset %r13, -40
	.cfi_offset %r14, -32
	.cfi_offset %r15, -24
	movl	%r9d, %ebx
	movl	%r8d, %r15d
	movl	%ecx, %r12d
	movl	%edx, %r13d
	movq	%rsi, %r14
	movl	40(%rbp), %r9d
	leal	1(%r13), %edx
	subl	%ebx, %edx
	leal	1(%r12), %ecx
	subl	16(%rbp), %ecx
	callq	_stbtt_MakeGlyphBitmapSubpixel
	cmpl	$2, %ebx
	jl	LBB80_2
## %bb.1:
	movq	%r14, %rdi
	movl	%r13d, %esi
	movl	%r12d, %edx
	movl	%r15d, %ecx
	movl	%ebx, %r8d
	callq	_stbtt__h_prefilter
LBB80_2:
	movl	16(%rbp), %edx
	cmpl	$2, %edx
	jl	LBB80_4
## %bb.3:
	movq	%r14, %rdi
	movl	%r13d, %esi
	movl	%r12d, %edx
	movl	%r15d, %ecx
	movl	16(%rbp), %r8d
	callq	_stbtt__v_prefilter
	movl	16(%rbp), %edx
LBB80_4:
	movq	24(%rbp), %rax
	xorps	%xmm0, %xmm0
	xorps	%xmm1, %xmm1
	testl	%ebx, %ebx
	je	LBB80_6
## %bb.5:
	movl	$1, %ecx
	subl	%ebx, %ecx
	xorps	%xmm1, %xmm1
	cvtsi2ssl	%ecx, %xmm1
	xorps	%xmm2, %xmm2
	cvtsi2ssl	%ebx, %xmm2
	addss	%xmm2, %xmm2
	divss	%xmm2, %xmm1
LBB80_6:
	movq	32(%rbp), %rcx
	movss	%xmm1, (%rax)
	testl	%edx, %edx
	je	LBB80_8
## %bb.7:
	movl	$1, %eax
	subl	%edx, %eax
	xorps	%xmm0, %xmm0
	cvtsi2ssl	%eax, %xmm0
	xorps	%xmm1, %xmm1
	cvtsi2ssl	%edx, %xmm1
	addss	%xmm1, %xmm1
	divss	%xmm1, %xmm0
LBB80_8:
	movss	%xmm0, (%rcx)
	addq	$8, %rsp
	popq	%rbx
	popq	%r12
	popq	%r13
	popq	%r14
	popq	%r15
	popq	%rbp
	retq
	.cfi_endproc
                                        ## -- End function
	.globl	_stbtt_MakeCodepointBitmapSubpixel ## -- Begin function stbtt_MakeCodepointBitmapSubpixel
	.p2align	4, 0x90
